Archive member included to satisfy reference by file (symbol)

D:/EmbeddecSystemsStuff/ticcs1230/simplelink_cc32xx_sdk_7_10_00_13/source\ti/drivers/lib/gcc/m4/drivers_cc32xx.a(GPIO.c.obj)
                              ./gpiointerrupt.o (GPIO_setCallback)
D:/EmbeddecSystemsStuff/ticcs1230/simplelink_cc32xx_sdk_7_10_00_13/source\ti/drivers/lib/gcc/m4/drivers_cc32xx.a(GPIOCC32XX.c.obj)
                              ./gpiointerrupt.o (GPIO_enableInt)
D:/EmbeddecSystemsStuff/ticcs1230/simplelink_cc32xx_sdk_7_10_00_13/source\ti/drivers/lib/gcc/m4/drivers_cc32xx.a(I2C.c.obj)
                              ./gpiointerrupt.o (I2C_init)
D:/EmbeddecSystemsStuff/ticcs1230/simplelink_cc32xx_sdk_7_10_00_13/source\ti/drivers/lib/gcc/m4/drivers_cc32xx.a(I2CCC32XX.c.obj)
                              D:/EmbeddecSystemsStuff/ticcs1230/simplelink_cc32xx_sdk_7_10_00_13/source\ti/drivers/lib/gcc/m4/drivers_cc32xx.a(I2C.c.obj) (I2CSupport_primeTransfer)
D:/EmbeddecSystemsStuff/ticcs1230/simplelink_cc32xx_sdk_7_10_00_13/source\ti/drivers/lib/gcc/m4/drivers_cc32xx.a(PowerCC32XX.c.obj)
                              ./syscfg/ti_drivers_config.o (Power_init)
D:/EmbeddecSystemsStuff/ticcs1230/simplelink_cc32xx_sdk_7_10_00_13/source\ti/drivers/lib/gcc/m4/drivers_cc32xx.a(PowerCC32XX_gcc.asm.obj)
                              D:/EmbeddecSystemsStuff/ticcs1230/simplelink_cc32xx_sdk_7_10_00_13/source\ti/drivers/lib/gcc/m4/drivers_cc32xx.a(PowerCC32XX.c.obj) (PowerCC32XX_enterLPDS)
D:/EmbeddecSystemsStuff/ticcs1230/simplelink_cc32xx_sdk_7_10_00_13/source\ti/drivers/lib/gcc/m4/drivers_cc32xx.a(Timer.c.obj)
                              ./gpiointerrupt.o (Timer_init)
D:/EmbeddecSystemsStuff/ticcs1230/simplelink_cc32xx_sdk_7_10_00_13/source\ti/drivers/lib/gcc/m4/drivers_cc32xx.a(TimerCC32XX.c.obj)
                              ./gpiointerrupt.o (Timer_open)
D:/EmbeddecSystemsStuff/ticcs1230/simplelink_cc32xx_sdk_7_10_00_13/source\ti/drivers/lib/gcc/m4/drivers_cc32xx.a(UART2.c.obj)
                              ./gpiointerrupt.o (UART2_Params_init)
D:/EmbeddecSystemsStuff/ticcs1230/simplelink_cc32xx_sdk_7_10_00_13/source\ti/drivers/lib/gcc/m4/drivers_cc32xx.a(UART2CC32XX.c.obj)
                              ./gpiointerrupt.o (UART2_open)
D:/EmbeddecSystemsStuff/ticcs1230/simplelink_cc32xx_sdk_7_10_00_13/source\ti/drivers/lib/gcc/m4/drivers_cc32xx.a(List.c.obj)
                              D:/EmbeddecSystemsStuff/ticcs1230/simplelink_cc32xx_sdk_7_10_00_13/source\ti/drivers/lib/gcc/m4/drivers_cc32xx.a(PowerCC32XX.c.obj) (List_put)
D:/EmbeddecSystemsStuff/ticcs1230/simplelink_cc32xx_sdk_7_10_00_13/source\ti/drivers/lib/gcc/m4/drivers_cc32xx.a(RingBuf.c.obj)
                              D:/EmbeddecSystemsStuff/ticcs1230/simplelink_cc32xx_sdk_7_10_00_13/source\ti/drivers/lib/gcc/m4/drivers_cc32xx.a(UART2CC32XX.c.obj) (RingBuf_construct)
D:/EmbeddecSystemsStuff/ticcs1230/simplelink_cc32xx_sdk_7_10_00_13/source\ti/drivers/lib/gcc/m4/drivers_cc32xx.a(UDMACC32XX.c.obj)
                              D:/EmbeddecSystemsStuff/ticcs1230/simplelink_cc32xx_sdk_7_10_00_13/source\ti/drivers/lib/gcc/m4/drivers_cc32xx.a(UART2CC32XX.c.obj) (UDMACC32XX_close)
D:/EmbeddecSystemsStuff/ticcs1230/simplelink_cc32xx_sdk_7_10_00_13/kernel/nortos\lib/gcc/m4/nortos_cc32xx.a(NoRTOS.c.obj)
                              ./main_nortos.o (NoRTOS_start)
D:/EmbeddecSystemsStuff/ticcs1230/simplelink_cc32xx_sdk_7_10_00_13/kernel/nortos\lib/gcc/m4/nortos_cc32xx.a(SemaphoreP_nortos.c.obj)
                              D:/EmbeddecSystemsStuff/ticcs1230/simplelink_cc32xx_sdk_7_10_00_13/source\ti/drivers/lib/gcc/m4/drivers_cc32xx.a(I2CCC32XX.c.obj) (SemaphoreP_constructBinary)
D:/EmbeddecSystemsStuff/ticcs1230/simplelink_cc32xx_sdk_7_10_00_13/kernel/nortos\lib/gcc/m4/nortos_cc32xx.a(ClockPSysTick_nortos.c.obj)
                              D:/EmbeddecSystemsStuff/ticcs1230/simplelink_cc32xx_sdk_7_10_00_13/kernel/nortos\lib/gcc/m4/nortos_cc32xx.a(SemaphoreP_nortos.c.obj) (ClockP_add)
D:/EmbeddecSystemsStuff/ticcs1230/simplelink_cc32xx_sdk_7_10_00_13/kernel/nortos\lib/gcc/m4/nortos_cc32xx.a(HwiPCC32XX_nortos.c.obj)
                              D:/EmbeddecSystemsStuff/ticcs1230/simplelink_cc32xx_sdk_7_10_00_13/kernel/nortos\lib/gcc/m4/nortos_cc32xx.a(NoRTOS.c.obj) (HwiP_enable)
D:/EmbeddecSystemsStuff/ticcs1230/simplelink_cc32xx_sdk_7_10_00_13/kernel/nortos\lib/gcc/m4/nortos_cc32xx.a(PowerCC32XX_nortos.c.obj)
                              ./syscfg/ti_drivers_config.o (PowerCC32XX_initPolicy)
D:/EmbeddecSystemsStuff/ticcs1230/simplelink_cc32xx_sdk_7_10_00_13/kernel/nortos\lib/gcc/m4/nortos_cc32xx.a(startup_cc32xx_gcc.c.obj)
                              (resetISR)
D:/EmbeddecSystemsStuff/ticcs1230/simplelink_cc32xx_sdk_7_10_00_13/kernel/nortos\lib/gcc/m4/nortos_cc32xx.a(SwiP_nortos.c.obj)
                              D:/EmbeddecSystemsStuff/ticcs1230/simplelink_cc32xx_sdk_7_10_00_13/kernel/nortos\lib/gcc/m4/nortos_cc32xx.a(PowerCC32XX_nortos.c.obj) (SwiP_disable)
D:/EmbeddecSystemsStuff/ticcs1230/simplelink_cc32xx_sdk_7_10_00_13/source\ti/devices/cc32xx/driverlib/gcc/Release/driverlib.a(cpu.obj)
                              D:/EmbeddecSystemsStuff/ticcs1230/simplelink_cc32xx_sdk_7_10_00_13/kernel/nortos\lib/gcc/m4/nortos_cc32xx.a(HwiPCC32XX_nortos.c.obj) (CPUprimask)
D:/EmbeddecSystemsStuff/ticcs1230/simplelink_cc32xx_sdk_7_10_00_13/source\ti/devices/cc32xx/driverlib/gcc/Release/driverlib.a(gpio.obj)
                              D:/EmbeddecSystemsStuff/ticcs1230/simplelink_cc32xx_sdk_7_10_00_13/source\ti/drivers/lib/gcc/m4/drivers_cc32xx.a(GPIOCC32XX.c.obj) (GPIODirModeSet)
D:/EmbeddecSystemsStuff/ticcs1230/simplelink_cc32xx_sdk_7_10_00_13/source\ti/devices/cc32xx/driverlib/gcc/Release/driverlib.a(hwspinlock.obj)
                              D:/EmbeddecSystemsStuff/ticcs1230/simplelink_cc32xx_sdk_7_10_00_13/source\ti/drivers/lib/gcc/m4/drivers_cc32xx.a(PowerCC32XX.c.obj) (HwSpinLockTryAcquire)
D:/EmbeddecSystemsStuff/ticcs1230/simplelink_cc32xx_sdk_7_10_00_13/source\ti/devices/cc32xx/driverlib/gcc/Release/driverlib.a(i2c.obj)
                              D:/EmbeddecSystemsStuff/ticcs1230/simplelink_cc32xx_sdk_7_10_00_13/source\ti/drivers/lib/gcc/m4/drivers_cc32xx.a(I2CCC32XX.c.obj) (I2CMasterInitExpClk)
D:/EmbeddecSystemsStuff/ticcs1230/simplelink_cc32xx_sdk_7_10_00_13/source\ti/devices/cc32xx/driverlib/gcc/Release/driverlib.a(interrupt.obj)
                              D:/EmbeddecSystemsStuff/ticcs1230/simplelink_cc32xx_sdk_7_10_00_13/kernel/nortos\lib/gcc/m4/nortos_cc32xx.a(HwiPCC32XX_nortos.c.obj) (IntMasterEnable)
D:/EmbeddecSystemsStuff/ticcs1230/simplelink_cc32xx_sdk_7_10_00_13/source\ti/devices/cc32xx/driverlib/gcc/Release/driverlib.a(pin.obj)
                              D:/EmbeddecSystemsStuff/ticcs1230/simplelink_cc32xx_sdk_7_10_00_13/source\ti/drivers/lib/gcc/m4/drivers_cc32xx.a(GPIOCC32XX.c.obj) (PinModeSet)
D:/EmbeddecSystemsStuff/ticcs1230/simplelink_cc32xx_sdk_7_10_00_13/source\ti/devices/cc32xx/driverlib/gcc/Release/driverlib.a(prcm.obj)
                              D:/EmbeddecSystemsStuff/ticcs1230/simplelink_cc32xx_sdk_7_10_00_13/source\ti/drivers/lib/gcc/m4/drivers_cc32xx.a(PowerCC32XX.c.obj) (PRCMPeripheralClkEnable)
D:/EmbeddecSystemsStuff/ticcs1230/simplelink_cc32xx_sdk_7_10_00_13/source\ti/devices/cc32xx/driverlib/gcc/Release/driverlib.a(spi.obj)
                              D:/EmbeddecSystemsStuff/ticcs1230/simplelink_cc32xx_sdk_7_10_00_13/source\ti/drivers/lib/gcc/m4/drivers_cc32xx.a(PowerCC32XX.c.obj) (SPIEnable)
D:/EmbeddecSystemsStuff/ticcs1230/simplelink_cc32xx_sdk_7_10_00_13/source\ti/devices/cc32xx/driverlib/gcc/Release/driverlib.a(systick.obj)
                              D:/EmbeddecSystemsStuff/ticcs1230/simplelink_cc32xx_sdk_7_10_00_13/kernel/nortos\lib/gcc/m4/nortos_cc32xx.a(ClockPSysTick_nortos.c.obj) (SysTickEnable)
D:/EmbeddecSystemsStuff/ticcs1230/simplelink_cc32xx_sdk_7_10_00_13/source\ti/devices/cc32xx/driverlib/gcc/Release/driverlib.a(timer.obj)
                              D:/EmbeddecSystemsStuff/ticcs1230/simplelink_cc32xx_sdk_7_10_00_13/source\ti/drivers/lib/gcc/m4/drivers_cc32xx.a(TimerCC32XX.c.obj) (TimerEnable)
D:/EmbeddecSystemsStuff/ticcs1230/simplelink_cc32xx_sdk_7_10_00_13/source\ti/devices/cc32xx/driverlib/gcc/Release/driverlib.a(uart.obj)
                              D:/EmbeddecSystemsStuff/ticcs1230/simplelink_cc32xx_sdk_7_10_00_13/source\ti/drivers/lib/gcc/m4/drivers_cc32xx.a(UART2CC32XX.c.obj) (UARTFIFOLevelSet)
D:/EmbeddecSystemsStuff/ticcs1230/simplelink_cc32xx_sdk_7_10_00_13/source\ti/devices/cc32xx/driverlib/gcc/Release/driverlib.a(udma.obj)
                              D:/EmbeddecSystemsStuff/ticcs1230/simplelink_cc32xx_sdk_7_10_00_13/source\ti/drivers/lib/gcc/m4/drivers_cc32xx.a(UDMACC32XX.c.obj) (uDMAEnable)
D:/EmbeddecSystemsStuff/ticcs1230/simplelink_cc32xx_sdk_7_10_00_13/source\ti/devices/cc32xx/driverlib/gcc/Release/driverlib.a(utils.obj)
                              D:/EmbeddecSystemsStuff/ticcs1230/simplelink_cc32xx_sdk_7_10_00_13/source\ti/devices/cc32xx/driverlib/gcc/Release/driverlib.a(prcm.obj) (UtilsDelay)
D:/EmbeddecSystemsStuff/ticcs1230/simplelink_cc32xx_sdk_7_10_00_13/source\ti/devices/cc32xx/driverlib/gcc/Release/driverlib.a(flash.obj)
                              D:/EmbeddecSystemsStuff/ticcs1230/simplelink_cc32xx_sdk_7_10_00_13/source\ti/devices/cc32xx/driverlib/gcc/Release/driverlib.a(prcm.obj) (FlashDisable)
d:/embeddecsystemsstuff/ticcs1230/ccs/tools/compiler/gcc-arm-none-eabi-9-2019-q4-major/bin/../lib/gcc/arm-none-eabi/9.2.1/thumb/v7e-m/nofp\libgcc.a(_arm_muldf3.o)
                              ./gpiointerrupt.o (__aeabi_dmul)
d:/embeddecsystemsstuff/ticcs1230/ccs/tools/compiler/gcc-arm-none-eabi-9-2019-q4-major/bin/../lib/gcc/arm-none-eabi/9.2.1/thumb/v7e-m/nofp\libgcc.a(_arm_addsubdf3.o)
                              ./gpiointerrupt.o (__aeabi_dadd)
d:/embeddecsystemsstuff/ticcs1230/ccs/tools/compiler/gcc-arm-none-eabi-9-2019-q4-major/bin/../lib/gcc/arm-none-eabi/9.2.1/thumb/v7e-m/nofp\libgcc.a(_arm_fixdfsi.o)
                              ./gpiointerrupt.o (__aeabi_d2iz)
d:/embeddecsystemsstuff/ticcs1230/ccs/tools/compiler/gcc-arm-none-eabi-9-2019-q4-major/bin/../lib/gcc/arm-none-eabi/9.2.1/thumb/v7e-m/nofp\libgcc.a(_arm_fixunsdfsi.o)
                              ./gpiointerrupt.o (__aeabi_d2uiz)
d:/embeddecsystemsstuff/ticcs1230/ccs/tools/compiler/gcc-arm-none-eabi-9-2019-q4-major/bin/../lib/gcc/arm-none-eabi/9.2.1/thumb/v7e-m/nofp\libgcc.a(_aeabi_ldivmod.o)
                              D:/EmbeddecSystemsStuff/ticcs1230/simplelink_cc32xx_sdk_7_10_00_13/source\ti/drivers/lib/gcc/m4/drivers_cc32xx.a(PowerCC32XX.c.obj) (__aeabi_ldivmod)
d:/embeddecsystemsstuff/ticcs1230/ccs/tools/compiler/gcc-arm-none-eabi-9-2019-q4-major/bin/../lib/gcc/arm-none-eabi/9.2.1/thumb/v7e-m/nofp\libgcc.a(_aeabi_uldivmod.o)
                              D:/EmbeddecSystemsStuff/ticcs1230/simplelink_cc32xx_sdk_7_10_00_13/source\ti/drivers/lib/gcc/m4/drivers_cc32xx.a(PowerCC32XX.c.obj) (__aeabi_uldivmod)
d:/embeddecsystemsstuff/ticcs1230/ccs/tools/compiler/gcc-arm-none-eabi-9-2019-q4-major/bin/../lib/gcc/arm-none-eabi/9.2.1/thumb/v7e-m/nofp\libgcc.a(_udivmoddi4.o)
                              d:/embeddecsystemsstuff/ticcs1230/ccs/tools/compiler/gcc-arm-none-eabi-9-2019-q4-major/bin/../lib/gcc/arm-none-eabi/9.2.1/thumb/v7e-m/nofp\libgcc.a(_aeabi_ldivmod.o) (__udivmoddi4)
d:/embeddecsystemsstuff/ticcs1230/ccs/tools/compiler/gcc-arm-none-eabi-9-2019-q4-major/bin/../lib/gcc/arm-none-eabi/9.2.1/thumb/v7e-m/nofp\libgcc.a(_dvmd_tls.o)
                              d:/embeddecsystemsstuff/ticcs1230/ccs/tools/compiler/gcc-arm-none-eabi-9-2019-q4-major/bin/../lib/gcc/arm-none-eabi/9.2.1/thumb/v7e-m/nofp\libgcc.a(_aeabi_ldivmod.o) (__aeabi_ldiv0)
D:/EmbeddecSystemsStuff/ticcs1230/ccs/tools/compiler/gcc-arm-none-eabi-9-2019-q4-major/arm-none-eabi/lib/thumb/v7e-m/nofp\libc_nano.a(lib_a-malloc.o)
                              D:/EmbeddecSystemsStuff/ticcs1230/simplelink_cc32xx_sdk_7_10_00_13/kernel/nortos\lib/gcc/m4/nortos_cc32xx.a(SemaphoreP_nortos.c.obj) (malloc)
D:/EmbeddecSystemsStuff/ticcs1230/ccs/tools/compiler/gcc-arm-none-eabi-9-2019-q4-major/arm-none-eabi/lib/thumb/v7e-m/nofp\libc_nano.a(lib_a-memcpy-stub.o)
                              D:/EmbeddecSystemsStuff/ticcs1230/simplelink_cc32xx_sdk_7_10_00_13/source\ti/drivers/lib/gcc/m4/drivers_cc32xx.a(UART2.c.obj) (memcpy)
D:/EmbeddecSystemsStuff/ticcs1230/ccs/tools/compiler/gcc-arm-none-eabi-9-2019-q4-major/arm-none-eabi/lib/thumb/v7e-m/nofp\libc_nano.a(lib_a-memset.o)
                              D:/EmbeddecSystemsStuff/ticcs1230/simplelink_cc32xx_sdk_7_10_00_13/kernel/nortos\lib/gcc/m4/nortos_cc32xx.a(startup_cc32xx_gcc.c.obj) (memset)
D:/EmbeddecSystemsStuff/ticcs1230/ccs/tools/compiler/gcc-arm-none-eabi-9-2019-q4-major/arm-none-eabi/lib/thumb/v7e-m/nofp\libc_nano.a(lib_a-nano-freer.o)
                              D:/EmbeddecSystemsStuff/ticcs1230/ccs/tools/compiler/gcc-arm-none-eabi-9-2019-q4-major/arm-none-eabi/lib/thumb/v7e-m/nofp\libc_nano.a(lib_a-malloc.o) (_free_r)
D:/EmbeddecSystemsStuff/ticcs1230/ccs/tools/compiler/gcc-arm-none-eabi-9-2019-q4-major/arm-none-eabi/lib/thumb/v7e-m/nofp\libc_nano.a(lib_a-nano-mallocr.o)
                              D:/EmbeddecSystemsStuff/ticcs1230/ccs/tools/compiler/gcc-arm-none-eabi-9-2019-q4-major/arm-none-eabi/lib/thumb/v7e-m/nofp\libc_nano.a(lib_a-malloc.o) (_malloc_r)
D:/EmbeddecSystemsStuff/ticcs1230/ccs/tools/compiler/gcc-arm-none-eabi-9-2019-q4-major/arm-none-eabi/lib/thumb/v7e-m/nofp\libc_nano.a(lib_a-sbrkr.o)
                              D:/EmbeddecSystemsStuff/ticcs1230/ccs/tools/compiler/gcc-arm-none-eabi-9-2019-q4-major/arm-none-eabi/lib/thumb/v7e-m/nofp\libc_nano.a(lib_a-nano-mallocr.o) (_sbrk_r)
D:/EmbeddecSystemsStuff/ticcs1230/ccs/tools/compiler/gcc-arm-none-eabi-9-2019-q4-major/arm-none-eabi/lib/thumb/v7e-m/nofp\libc_nano.a(lib_a-snprintf.o)
                              ./gpiointerrupt.o (snprintf)
D:/EmbeddecSystemsStuff/ticcs1230/ccs/tools/compiler/gcc-arm-none-eabi-9-2019-q4-major/arm-none-eabi/lib/thumb/v7e-m/nofp\libc_nano.a(lib_a-impure.o)
                              D:/EmbeddecSystemsStuff/ticcs1230/ccs/tools/compiler/gcc-arm-none-eabi-9-2019-q4-major/arm-none-eabi/lib/thumb/v7e-m/nofp\libc_nano.a(lib_a-malloc.o) (_impure_ptr)
D:/EmbeddecSystemsStuff/ticcs1230/ccs/tools/compiler/gcc-arm-none-eabi-9-2019-q4-major/arm-none-eabi/lib/thumb/v7e-m/nofp\libc_nano.a(lib_a-mlock.o)
                              D:/EmbeddecSystemsStuff/ticcs1230/ccs/tools/compiler/gcc-arm-none-eabi-9-2019-q4-major/arm-none-eabi/lib/thumb/v7e-m/nofp\libc_nano.a(lib_a-nano-freer.o) (__malloc_lock)
D:/EmbeddecSystemsStuff/ticcs1230/ccs/tools/compiler/gcc-arm-none-eabi-9-2019-q4-major/arm-none-eabi/lib/thumb/v7e-m/nofp\libc_nano.a(lib_a-nano-svfprintf.o)
                              D:/EmbeddecSystemsStuff/ticcs1230/ccs/tools/compiler/gcc-arm-none-eabi-9-2019-q4-major/arm-none-eabi/lib/thumb/v7e-m/nofp\libc_nano.a(lib_a-snprintf.o) (_svfprintf_r)
D:/EmbeddecSystemsStuff/ticcs1230/ccs/tools/compiler/gcc-arm-none-eabi-9-2019-q4-major/arm-none-eabi/lib/thumb/v7e-m/nofp\libc_nano.a(lib_a-nano-vfprintf_i.o)
                              D:/EmbeddecSystemsStuff/ticcs1230/ccs/tools/compiler/gcc-arm-none-eabi-9-2019-q4-major/arm-none-eabi/lib/thumb/v7e-m/nofp\libc_nano.a(lib_a-nano-svfprintf.o) (_printf_i)
D:/EmbeddecSystemsStuff/ticcs1230/ccs/tools/compiler/gcc-arm-none-eabi-9-2019-q4-major/arm-none-eabi/lib/thumb/v7e-m/nofp\libc_nano.a(lib_a-reent.o)
                              D:/EmbeddecSystemsStuff/ticcs1230/ccs/tools/compiler/gcc-arm-none-eabi-9-2019-q4-major/arm-none-eabi/lib/thumb/v7e-m/nofp\libc_nano.a(lib_a-sbrkr.o) (errno)
D:/EmbeddecSystemsStuff/ticcs1230/ccs/tools/compiler/gcc-arm-none-eabi-9-2019-q4-major/arm-none-eabi/lib/thumb/v7e-m/nofp\libc_nano.a(lib_a-lock.o)
                              D:/EmbeddecSystemsStuff/ticcs1230/ccs/tools/compiler/gcc-arm-none-eabi-9-2019-q4-major/arm-none-eabi/lib/thumb/v7e-m/nofp\libc_nano.a(lib_a-mlock.o) (__retarget_lock_acquire_recursive)
D:/EmbeddecSystemsStuff/ticcs1230/ccs/tools/compiler/gcc-arm-none-eabi-9-2019-q4-major/arm-none-eabi/lib/thumb/v7e-m/nofp\libc_nano.a(lib_a-memchr.o)
                              D:/EmbeddecSystemsStuff/ticcs1230/ccs/tools/compiler/gcc-arm-none-eabi-9-2019-q4-major/arm-none-eabi/lib/thumb/v7e-m/nofp\libc_nano.a(lib_a-nano-svfprintf.o) (memchr)
D:/EmbeddecSystemsStuff/ticcs1230/ccs/tools/compiler/gcc-arm-none-eabi-9-2019-q4-major/arm-none-eabi/lib/thumb/v7e-m/nofp\libc_nano.a(lib_a-memmove.o)
                              D:/EmbeddecSystemsStuff/ticcs1230/ccs/tools/compiler/gcc-arm-none-eabi-9-2019-q4-major/arm-none-eabi/lib/thumb/v7e-m/nofp\libc_nano.a(lib_a-nano-svfprintf.o) (memmove)
D:/EmbeddecSystemsStuff/ticcs1230/ccs/tools/compiler/gcc-arm-none-eabi-9-2019-q4-major/arm-none-eabi/lib/thumb/v7e-m/nofp\libc_nano.a(lib_a-nano-reallocr.o)
                              D:/EmbeddecSystemsStuff/ticcs1230/ccs/tools/compiler/gcc-arm-none-eabi-9-2019-q4-major/arm-none-eabi/lib/thumb/v7e-m/nofp\libc_nano.a(lib_a-nano-svfprintf.o) (_realloc_r)
D:/EmbeddecSystemsStuff/ticcs1230/ccs/tools/compiler/gcc-arm-none-eabi-9-2019-q4-major/arm-none-eabi/lib/thumb/v7e-m/nofp\libc_nano.a(lib_a-nano-msizer.o)
                              D:/EmbeddecSystemsStuff/ticcs1230/ccs/tools/compiler/gcc-arm-none-eabi-9-2019-q4-major/arm-none-eabi/lib/thumb/v7e-m/nofp\libc_nano.a(lib_a-nano-reallocr.o) (_malloc_usable_size_r)
D:/EmbeddecSystemsStuff/ticcs1230/ccs/tools/compiler/gcc-arm-none-eabi-9-2019-q4-major/arm-none-eabi/lib/thumb/v7e-m/nofp\libnosys.a(sbrk.o)
                              D:/EmbeddecSystemsStuff/ticcs1230/ccs/tools/compiler/gcc-arm-none-eabi-9-2019-q4-major/arm-none-eabi/lib/thumb/v7e-m/nofp\libc_nano.a(lib_a-sbrkr.o) (_sbrk)

Allocating common symbols
Common symbol       size              file

__lock___atexit_recursive_mutex
                    0x1               D:/EmbeddecSystemsStuff/ticcs1230/ccs/tools/compiler/gcc-arm-none-eabi-9-2019-q4-major/arm-none-eabi/lib/thumb/v7e-m/nofp\libc_nano.a(lib_a-lock.o)
PowerCC32XX_contextSave
                    0x12c             D:/EmbeddecSystemsStuff/ticcs1230/simplelink_cc32xx_sdk_7_10_00_13/source\ti/drivers/lib/gcc/m4/drivers_cc32xx.a(PowerCC32XX.c.obj)
__lock___arc4random_mutex
                    0x1               D:/EmbeddecSystemsStuff/ticcs1230/ccs/tools/compiler/gcc-arm-none-eabi-9-2019-q4-major/arm-none-eabi/lib/thumb/v7e-m/nofp\libc_nano.a(lib_a-lock.o)
timer0              0x4               ./gpiointerrupt.o
tasks               0x3c              ./gpiointerrupt.o
errno               0x4               D:/EmbeddecSystemsStuff/ticcs1230/ccs/tools/compiler/gcc-arm-none-eabi-9-2019-q4-major/arm-none-eabi/lib/thumb/v7e-m/nofp\libc_nano.a(lib_a-reent.o)
output              0x40              ./gpiointerrupt.o
__lock___env_recursive_mutex
                    0x1               D:/EmbeddecSystemsStuff/ticcs1230/ccs/tools/compiler/gcc-arm-none-eabi-9-2019-q4-major/arm-none-eabi/lib/thumb/v7e-m/nofp\libc_nano.a(lib_a-lock.o)
__lock___sinit_recursive_mutex
                    0x1               D:/EmbeddecSystemsStuff/ticcs1230/ccs/tools/compiler/gcc-arm-none-eabi-9-2019-q4-major/arm-none-eabi/lib/thumb/v7e-m/nofp\libc_nano.a(lib_a-lock.o)
ambientTemp         0x2               ./gpiointerrupt.o
ClockP_ctrl         0x10              D:/EmbeddecSystemsStuff/ticcs1230/simplelink_cc32xx_sdk_7_10_00_13/kernel/nortos\lib/gcc/m4/nortos_cc32xx.a(ClockPSysTick_nortos.c.obj)
i2cTransaction      0x20              ./gpiointerrupt.o
__lock___malloc_recursive_mutex
                    0x1               D:/EmbeddecSystemsStuff/ticcs1230/ccs/tools/compiler/gcc-arm-none-eabi-9-2019-q4-major/arm-none-eabi/lib/thumb/v7e-m/nofp\libc_nano.a(lib_a-lock.o)
gpioCallbackFunctions
                    0x84              ./syscfg/ti_drivers_config.o
i2c                 0x4               ./gpiointerrupt.o
uart2CC32XXObjects0
                    0x178             ./syscfg/ti_drivers_config.o
rxBuffer            0x2               ./gpiointerrupt.o
udmaCC3220SObject   0x8               ./syscfg/ti_drivers_config.o
timerCC32XXObjects  0x84              ./syscfg/ti_drivers_config.o
bytesToSend         0x4               ./gpiointerrupt.o
seconds             0x4               ./gpiointerrupt.o
txBuffer            0x1               ./gpiointerrupt.o
heat                0x1               ./gpiointerrupt.o
i2cCC32XXObjects    0xfc              ./syscfg/ti_drivers_config.o
__lock___at_quick_exit_mutex
                    0x1               D:/EmbeddecSystemsStuff/ticcs1230/ccs/tools/compiler/gcc-arm-none-eabi-9-2019-q4-major/arm-none-eabi/lib/thumb/v7e-m/nofp\libc_nano.a(lib_a-lock.o)
setPoint            0x2               ./gpiointerrupt.o
uart                0x4               ./gpiointerrupt.o
__lock___dd_hash_mutex
                    0x1               D:/EmbeddecSystemsStuff/ticcs1230/ccs/tools/compiler/gcc-arm-none-eabi-9-2019-q4-major/arm-none-eabi/lib/thumb/v7e-m/nofp\libc_nano.a(lib_a-lock.o)
__lock___tz_mutex   0x1               D:/EmbeddecSystemsStuff/ticcs1230/ccs/tools/compiler/gcc-arm-none-eabi-9-2019-q4-major/arm-none-eabi/lib/thumb/v7e-m/nofp\libc_nano.a(lib_a-lock.o)
__lock___sfp_recursive_mutex
                    0x1               D:/EmbeddecSystemsStuff/ticcs1230/ccs/tools/compiler/gcc-arm-none-eabi-9-2019-q4-major/arm-none-eabi/lib/thumb/v7e-m/nofp\libc_nano.a(lib_a-lock.o)
gpioUserArgs        0x84              ./syscfg/ti_drivers_config.o

Discarded input sections

 .text          0x00000000        0x0 ./gpiointerrupt.o
 .data          0x00000000        0x0 ./gpiointerrupt.o
 .bss           0x00000000        0x0 ./gpiointerrupt.o
 .text.InitTasks
                0x00000000       0x58 ./gpiointerrupt.o
 .text.TaskScheduler
                0x00000000       0x4c ./gpiointerrupt.o
 .rodata.NUM_TASKS
                0x00000000        0x1 ./gpiointerrupt.o
 .rodata.PERIOD_BUTTON
                0x00000000        0x4 ./gpiointerrupt.o
 .rodata.PERIOD_SERVER
                0x00000000        0x4 ./gpiointerrupt.o
 .rodata.PERIOD_TEMP
                0x00000000        0x4 ./gpiointerrupt.o
 .rodata.TASK_PERIOD_GCD
                0x00000000        0x4 ./gpiointerrupt.o
 .text          0x00000000        0x0 ./syscfg/ti_drivers_config.o
 .data          0x00000000        0x0 ./syscfg/ti_drivers_config.o
 .bss           0x00000000        0x0 ./syscfg/ti_drivers_config.o
 .rodata.CONFIG_GPIO_BUTTON_0_CONST
                0x00000000        0x1 ./syscfg/ti_drivers_config.o
 .rodata.CONFIG_GPIO_BUTTON_1_CONST
                0x00000000        0x1 ./syscfg/ti_drivers_config.o
 .rodata.CONFIG_GPIO_LED_0_CONST
                0x00000000        0x1 ./syscfg/ti_drivers_config.o
 .rodata.CONFIG_I2C_0_CONST
                0x00000000        0x1 ./syscfg/ti_drivers_config.o
 .rodata.CONFIG_TIMER_0_CONST
                0x00000000        0x1 ./syscfg/ti_drivers_config.o
 .rodata.CONFIG_UART2_0_CONST
                0x00000000        0x1 ./syscfg/ti_drivers_config.o
 .rodata.GPIO_pinLowerBound
                0x00000000        0x1 ./syscfg/ti_drivers_config.o
 .text          0x00000000        0x0 ./main_nortos.o
 .data          0x00000000        0x0 ./main_nortos.o
 .bss           0x00000000        0x0 ./main_nortos.o
 .text          0x00000000        0x0 D:/EmbeddecSystemsStuff/ticcs1230/simplelink_cc32xx_sdk_7_10_00_13/source\ti/drivers/lib/gcc/m4/drivers_cc32xx.a(GPIO.c.obj)
 .data          0x00000000        0x0 D:/EmbeddecSystemsStuff/ticcs1230/simplelink_cc32xx_sdk_7_10_00_13/source\ti/drivers/lib/gcc/m4/drivers_cc32xx.a(GPIO.c.obj)
 .bss           0x00000000        0x0 D:/EmbeddecSystemsStuff/ticcs1230/simplelink_cc32xx_sdk_7_10_00_13/source\ti/drivers/lib/gcc/m4/drivers_cc32xx.a(GPIO.c.obj)
 .text.GPIO_getCallback
                0x00000000       0x10 D:/EmbeddecSystemsStuff/ticcs1230/simplelink_cc32xx_sdk_7_10_00_13/source\ti/drivers/lib/gcc/m4/drivers_cc32xx.a(GPIO.c.obj)
 .text.GPIO_setUserArg
                0x00000000       0x14 D:/EmbeddecSystemsStuff/ticcs1230/simplelink_cc32xx_sdk_7_10_00_13/source\ti/drivers/lib/gcc/m4/drivers_cc32xx.a(GPIO.c.obj)
 .text.GPIO_getUserArg
                0x00000000       0x10 D:/EmbeddecSystemsStuff/ticcs1230/simplelink_cc32xx_sdk_7_10_00_13/source\ti/drivers/lib/gcc/m4/drivers_cc32xx.a(GPIO.c.obj)
 .text          0x00000000        0x0 D:/EmbeddecSystemsStuff/ticcs1230/simplelink_cc32xx_sdk_7_10_00_13/source\ti/drivers/lib/gcc/m4/drivers_cc32xx.a(GPIOCC32XX.c.obj)
 .data          0x00000000        0x0 D:/EmbeddecSystemsStuff/ticcs1230/simplelink_cc32xx_sdk_7_10_00_13/source\ti/drivers/lib/gcc/m4/drivers_cc32xx.a(GPIOCC32XX.c.obj)
 .bss           0x00000000        0x0 D:/EmbeddecSystemsStuff/ticcs1230/simplelink_cc32xx_sdk_7_10_00_13/source\ti/drivers/lib/gcc/m4/drivers_cc32xx.a(GPIOCC32XX.c.obj)
 .text.GPIO_clearInt
                0x00000000       0x1c D:/EmbeddecSystemsStuff/ticcs1230/simplelink_cc32xx_sdk_7_10_00_13/source\ti/drivers/lib/gcc/m4/drivers_cc32xx.a(GPIOCC32XX.c.obj)
 .text.GPIO_disableInt
                0x00000000       0x44 D:/EmbeddecSystemsStuff/ticcs1230/simplelink_cc32xx_sdk_7_10_00_13/source\ti/drivers/lib/gcc/m4/drivers_cc32xx.a(GPIOCC32XX.c.obj)
 .text.GPIO_getConfig
                0x00000000       0x10 D:/EmbeddecSystemsStuff/ticcs1230/simplelink_cc32xx_sdk_7_10_00_13/source\ti/drivers/lib/gcc/m4/drivers_cc32xx.a(GPIOCC32XX.c.obj)
 .text.GPIO_read
                0x00000000       0x28 D:/EmbeddecSystemsStuff/ticcs1230/simplelink_cc32xx_sdk_7_10_00_13/source\ti/drivers/lib/gcc/m4/drivers_cc32xx.a(GPIOCC32XX.c.obj)
 .text.GPIO_toggle
                0x00000000       0x5c D:/EmbeddecSystemsStuff/ticcs1230/simplelink_cc32xx_sdk_7_10_00_13/source\ti/drivers/lib/gcc/m4/drivers_cc32xx.a(GPIOCC32XX.c.obj)
 .text          0x00000000        0x0 D:/EmbeddecSystemsStuff/ticcs1230/simplelink_cc32xx_sdk_7_10_00_13/source\ti/drivers/lib/gcc/m4/drivers_cc32xx.a(I2C.c.obj)
 .data          0x00000000        0x0 D:/EmbeddecSystemsStuff/ticcs1230/simplelink_cc32xx_sdk_7_10_00_13/source\ti/drivers/lib/gcc/m4/drivers_cc32xx.a(I2C.c.obj)
 .bss           0x00000000        0x0 D:/EmbeddecSystemsStuff/ticcs1230/simplelink_cc32xx_sdk_7_10_00_13/source\ti/drivers/lib/gcc/m4/drivers_cc32xx.a(I2C.c.obj)
 .text.I2C_cancel
                0x00000000       0x28 D:/EmbeddecSystemsStuff/ticcs1230/simplelink_cc32xx_sdk_7_10_00_13/source\ti/drivers/lib/gcc/m4/drivers_cc32xx.a(I2C.c.obj)
 .rodata.I2C_defaultParams
                0x00000000       0x10 D:/EmbeddecSystemsStuff/ticcs1230/simplelink_cc32xx_sdk_7_10_00_13/source\ti/drivers/lib/gcc/m4/drivers_cc32xx.a(I2C.c.obj)
 .text          0x00000000        0x0 D:/EmbeddecSystemsStuff/ticcs1230/simplelink_cc32xx_sdk_7_10_00_13/source\ti/drivers/lib/gcc/m4/drivers_cc32xx.a(I2CCC32XX.c.obj)
 .data          0x00000000        0x0 D:/EmbeddecSystemsStuff/ticcs1230/simplelink_cc32xx_sdk_7_10_00_13/source\ti/drivers/lib/gcc/m4/drivers_cc32xx.a(I2CCC32XX.c.obj)
 .bss           0x00000000        0x0 D:/EmbeddecSystemsStuff/ticcs1230/simplelink_cc32xx_sdk_7_10_00_13/source\ti/drivers/lib/gcc/m4/drivers_cc32xx.a(I2CCC32XX.c.obj)
 .text.I2C_control
                0x00000000        0x8 D:/EmbeddecSystemsStuff/ticcs1230/simplelink_cc32xx_sdk_7_10_00_13/source\ti/drivers/lib/gcc/m4/drivers_cc32xx.a(I2CCC32XX.c.obj)
 .text.I2C_close
                0x00000000       0x70 D:/EmbeddecSystemsStuff/ticcs1230/simplelink_cc32xx_sdk_7_10_00_13/source\ti/drivers/lib/gcc/m4/drivers_cc32xx.a(I2CCC32XX.c.obj)
 .text.I2CCC32XX_reset
                0x00000000       0x14 D:/EmbeddecSystemsStuff/ticcs1230/simplelink_cc32xx_sdk_7_10_00_13/source\ti/drivers/lib/gcc/m4/drivers_cc32xx.a(I2CCC32XX.c.obj)
 .text.I2C_setClockTimeout
                0x00000000       0x1c D:/EmbeddecSystemsStuff/ticcs1230/simplelink_cc32xx_sdk_7_10_00_13/source\ti/drivers/lib/gcc/m4/drivers_cc32xx.a(I2CCC32XX.c.obj)
 .text          0x00000000        0x0 D:/EmbeddecSystemsStuff/ticcs1230/simplelink_cc32xx_sdk_7_10_00_13/source\ti/drivers/lib/gcc/m4/drivers_cc32xx.a(PowerCC32XX.c.obj)
 .data          0x00000000        0x0 D:/EmbeddecSystemsStuff/ticcs1230/simplelink_cc32xx_sdk_7_10_00_13/source\ti/drivers/lib/gcc/m4/drivers_cc32xx.a(PowerCC32XX.c.obj)
 .bss           0x00000000        0x0 D:/EmbeddecSystemsStuff/ticcs1230/simplelink_cc32xx_sdk_7_10_00_13/source\ti/drivers/lib/gcc/m4/drivers_cc32xx.a(PowerCC32XX.c.obj)
 .text.Power_getDependencyCount
                0x00000000       0x18 D:/EmbeddecSystemsStuff/ticcs1230/simplelink_cc32xx_sdk_7_10_00_13/source\ti/drivers/lib/gcc/m4/drivers_cc32xx.a(PowerCC32XX.c.obj)
 .text.Power_getTransitionState
                0x00000000        0xc D:/EmbeddecSystemsStuff/ticcs1230/simplelink_cc32xx_sdk_7_10_00_13/source\ti/drivers/lib/gcc/m4/drivers_cc32xx.a(PowerCC32XX.c.obj)
 .text.Power_setPolicy
                0x00000000        0xc D:/EmbeddecSystemsStuff/ticcs1230/simplelink_cc32xx_sdk_7_10_00_13/source\ti/drivers/lib/gcc/m4/drivers_cc32xx.a(PowerCC32XX.c.obj)
 .text.PowerCC32XX_configureWakeup
                0x00000000       0x80 D:/EmbeddecSystemsStuff/ticcs1230/simplelink_cc32xx_sdk_7_10_00_13/source\ti/drivers/lib/gcc/m4/drivers_cc32xx.a(PowerCC32XX.c.obj)
 .text.PowerCC32XX_disableIORetention
                0x00000000        0x4 D:/EmbeddecSystemsStuff/ticcs1230/simplelink_cc32xx_sdk_7_10_00_13/source\ti/drivers/lib/gcc/m4/drivers_cc32xx.a(PowerCC32XX.c.obj)
 .text.PowerCC32XX_getWakeup
                0x00000000       0x1c D:/EmbeddecSystemsStuff/ticcs1230/simplelink_cc32xx_sdk_7_10_00_13/source\ti/drivers/lib/gcc/m4/drivers_cc32xx.a(PowerCC32XX.c.obj)
 .text.PowerCC32XX_parkPin
                0x00000000       0x38 D:/EmbeddecSystemsStuff/ticcs1230/simplelink_cc32xx_sdk_7_10_00_13/source\ti/drivers/lib/gcc/m4/drivers_cc32xx.a(PowerCC32XX.c.obj)
 .text.PowerCC32XX_restoreParkedPin
                0x00000000       0x28 D:/EmbeddecSystemsStuff/ticcs1230/simplelink_cc32xx_sdk_7_10_00_13/source\ti/drivers/lib/gcc/m4/drivers_cc32xx.a(PowerCC32XX.c.obj)
 .text.PowerCC32XX_shutdownSSPI
                0x00000000       0xd8 D:/EmbeddecSystemsStuff/ticcs1230/simplelink_cc32xx_sdk_7_10_00_13/source\ti/drivers/lib/gcc/m4/drivers_cc32xx.a(PowerCC32XX.c.obj)
 .text.Power_shutdown
                0x00000000       0xa8 D:/EmbeddecSystemsStuff/ticcs1230/simplelink_cc32xx_sdk_7_10_00_13/source\ti/drivers/lib/gcc/m4/drivers_cc32xx.a(PowerCC32XX.c.obj)
 .data          0x00000000        0x0 D:/EmbeddecSystemsStuff/ticcs1230/simplelink_cc32xx_sdk_7_10_00_13/source\ti/drivers/lib/gcc/m4/drivers_cc32xx.a(PowerCC32XX_gcc.asm.obj)
 .bss           0x00000000        0x0 D:/EmbeddecSystemsStuff/ticcs1230/simplelink_cc32xx_sdk_7_10_00_13/source\ti/drivers/lib/gcc/m4/drivers_cc32xx.a(PowerCC32XX_gcc.asm.obj)
 .text          0x00000000        0x0 D:/EmbeddecSystemsStuff/ticcs1230/simplelink_cc32xx_sdk_7_10_00_13/source\ti/drivers/lib/gcc/m4/drivers_cc32xx.a(Timer.c.obj)
 .data          0x00000000        0x0 D:/EmbeddecSystemsStuff/ticcs1230/simplelink_cc32xx_sdk_7_10_00_13/source\ti/drivers/lib/gcc/m4/drivers_cc32xx.a(Timer.c.obj)
 .bss           0x00000000        0x0 D:/EmbeddecSystemsStuff/ticcs1230/simplelink_cc32xx_sdk_7_10_00_13/source\ti/drivers/lib/gcc/m4/drivers_cc32xx.a(Timer.c.obj)
 .text.Timer_setPeriod
                0x00000000       0x68 D:/EmbeddecSystemsStuff/ticcs1230/simplelink_cc32xx_sdk_7_10_00_13/source\ti/drivers/lib/gcc/m4/drivers_cc32xx.a(Timer.c.obj)
 .text          0x00000000        0x0 D:/EmbeddecSystemsStuff/ticcs1230/simplelink_cc32xx_sdk_7_10_00_13/source\ti/drivers/lib/gcc/m4/drivers_cc32xx.a(TimerCC32XX.c.obj)
 .data          0x00000000        0x0 D:/EmbeddecSystemsStuff/ticcs1230/simplelink_cc32xx_sdk_7_10_00_13/source\ti/drivers/lib/gcc/m4/drivers_cc32xx.a(TimerCC32XX.c.obj)
 .bss           0x00000000        0x0 D:/EmbeddecSystemsStuff/ticcs1230/simplelink_cc32xx_sdk_7_10_00_13/source\ti/drivers/lib/gcc/m4/drivers_cc32xx.a(TimerCC32XX.c.obj)
 .text.TimerCC32XX_allocateTimerResource
                0x00000000       0x78 D:/EmbeddecSystemsStuff/ticcs1230/simplelink_cc32xx_sdk_7_10_00_13/source\ti/drivers/lib/gcc/m4/drivers_cc32xx.a(TimerCC32XX.c.obj)
 .text.Timer_control
                0x00000000        0x8 D:/EmbeddecSystemsStuff/ticcs1230/simplelink_cc32xx_sdk_7_10_00_13/source\ti/drivers/lib/gcc/m4/drivers_cc32xx.a(TimerCC32XX.c.obj)
 .text.TimerCC32XX_freeTimerResource
                0x00000000       0x7c D:/EmbeddecSystemsStuff/ticcs1230/simplelink_cc32xx_sdk_7_10_00_13/source\ti/drivers/lib/gcc/m4/drivers_cc32xx.a(TimerCC32XX.c.obj)
 .text.Timer_getCount
                0x00000000       0x18 D:/EmbeddecSystemsStuff/ticcs1230/simplelink_cc32xx_sdk_7_10_00_13/source\ti/drivers/lib/gcc/m4/drivers_cc32xx.a(TimerCC32XX.c.obj)
 .text.TimerSupport_timerFullWidth
                0x00000000       0x10 D:/EmbeddecSystemsStuff/ticcs1230/simplelink_cc32xx_sdk_7_10_00_13/source\ti/drivers/lib/gcc/m4/drivers_cc32xx.a(TimerCC32XX.c.obj)
 .text.TimerSupport_timerLoad
                0x00000000       0x70 D:/EmbeddecSystemsStuff/ticcs1230/simplelink_cc32xx_sdk_7_10_00_13/source\ti/drivers/lib/gcc/m4/drivers_cc32xx.a(TimerCC32XX.c.obj)
 .text          0x00000000        0x0 D:/EmbeddecSystemsStuff/ticcs1230/simplelink_cc32xx_sdk_7_10_00_13/source\ti/drivers/lib/gcc/m4/drivers_cc32xx.a(UART2.c.obj)
 .data          0x00000000        0x0 D:/EmbeddecSystemsStuff/ticcs1230/simplelink_cc32xx_sdk_7_10_00_13/source\ti/drivers/lib/gcc/m4/drivers_cc32xx.a(UART2.c.obj)
 .bss           0x00000000        0x0 D:/EmbeddecSystemsStuff/ticcs1230/simplelink_cc32xx_sdk_7_10_00_13/source\ti/drivers/lib/gcc/m4/drivers_cc32xx.a(UART2.c.obj)
 .text.UART2_getRxCount
                0x00000000       0x3c D:/EmbeddecSystemsStuff/ticcs1230/simplelink_cc32xx_sdk_7_10_00_13/source\ti/drivers/lib/gcc/m4/drivers_cc32xx.a(UART2.c.obj)
 .text.UART2_readCancel
                0x00000000       0x60 D:/EmbeddecSystemsStuff/ticcs1230/simplelink_cc32xx_sdk_7_10_00_13/source\ti/drivers/lib/gcc/m4/drivers_cc32xx.a(UART2.c.obj)
 .text.UART2_rxEnable
                0x00000000       0x44 D:/EmbeddecSystemsStuff/ticcs1230/simplelink_cc32xx_sdk_7_10_00_13/source\ti/drivers/lib/gcc/m4/drivers_cc32xx.a(UART2.c.obj)
 .text.UART2_readTimeout
                0x00000000      0x1c4 D:/EmbeddecSystemsStuff/ticcs1230/simplelink_cc32xx_sdk_7_10_00_13/source\ti/drivers/lib/gcc/m4/drivers_cc32xx.a(UART2.c.obj)
 .text.UART2_readFull
                0x00000000       0x50 D:/EmbeddecSystemsStuff/ticcs1230/simplelink_cc32xx_sdk_7_10_00_13/source\ti/drivers/lib/gcc/m4/drivers_cc32xx.a(UART2.c.obj)
 .text.UART2_read
                0x00000000       0x24 D:/EmbeddecSystemsStuff/ticcs1230/simplelink_cc32xx_sdk_7_10_00_13/source\ti/drivers/lib/gcc/m4/drivers_cc32xx.a(UART2.c.obj)
 .text.UART2_writeCancel
                0x00000000       0xb0 D:/EmbeddecSystemsStuff/ticcs1230/simplelink_cc32xx_sdk_7_10_00_13/source\ti/drivers/lib/gcc/m4/drivers_cc32xx.a(UART2.c.obj)
 .text          0x00000000        0x0 D:/EmbeddecSystemsStuff/ticcs1230/simplelink_cc32xx_sdk_7_10_00_13/source\ti/drivers/lib/gcc/m4/drivers_cc32xx.a(UART2CC32XX.c.obj)
 .data          0x00000000        0x0 D:/EmbeddecSystemsStuff/ticcs1230/simplelink_cc32xx_sdk_7_10_00_13/source\ti/drivers/lib/gcc/m4/drivers_cc32xx.a(UART2CC32XX.c.obj)
 .bss           0x00000000        0x0 D:/EmbeddecSystemsStuff/ticcs1230/simplelink_cc32xx_sdk_7_10_00_13/source\ti/drivers/lib/gcc/m4/drivers_cc32xx.a(UART2CC32XX.c.obj)
 .text.UART2_flushRx
                0x00000000       0x48 D:/EmbeddecSystemsStuff/ticcs1230/simplelink_cc32xx_sdk_7_10_00_13/source\ti/drivers/lib/gcc/m4/drivers_cc32xx.a(UART2CC32XX.c.obj)
 .text.UART2Support_enableInts
                0x00000000       0x3c D:/EmbeddecSystemsStuff/ticcs1230/simplelink_cc32xx_sdk_7_10_00_13/source\ti/drivers/lib/gcc/m4/drivers_cc32xx.a(UART2CC32XX.c.obj)
 .text.UART2Support_enableRx
                0x00000000        0xc D:/EmbeddecSystemsStuff/ticcs1230/simplelink_cc32xx_sdk_7_10_00_13/source\ti/drivers/lib/gcc/m4/drivers_cc32xx.a(UART2CC32XX.c.obj)
 .text.UART2Support_powerSetConstraint
                0x00000000        0x8 D:/EmbeddecSystemsStuff/ticcs1230/simplelink_cc32xx_sdk_7_10_00_13/source\ti/drivers/lib/gcc/m4/drivers_cc32xx.a(UART2CC32XX.c.obj)
 .text.UART2Support_rxStatus2ErrorCode
                0x00000000       0x10 D:/EmbeddecSystemsStuff/ticcs1230/simplelink_cc32xx_sdk_7_10_00_13/source\ti/drivers/lib/gcc/m4/drivers_cc32xx.a(UART2CC32XX.c.obj)
 .text.UART2Support_uartRxError
                0x00000000       0x24 D:/EmbeddecSystemsStuff/ticcs1230/simplelink_cc32xx_sdk_7_10_00_13/source\ti/drivers/lib/gcc/m4/drivers_cc32xx.a(UART2CC32XX.c.obj)
 .text          0x00000000        0x0 D:/EmbeddecSystemsStuff/ticcs1230/simplelink_cc32xx_sdk_7_10_00_13/source\ti/drivers/lib/gcc/m4/drivers_cc32xx.a(List.c.obj)
 .data          0x00000000        0x0 D:/EmbeddecSystemsStuff/ticcs1230/simplelink_cc32xx_sdk_7_10_00_13/source\ti/drivers/lib/gcc/m4/drivers_cc32xx.a(List.c.obj)
 .bss           0x00000000        0x0 D:/EmbeddecSystemsStuff/ticcs1230/simplelink_cc32xx_sdk_7_10_00_13/source\ti/drivers/lib/gcc/m4/drivers_cc32xx.a(List.c.obj)
 .text.List_clearList
                0x00000000       0x18 D:/EmbeddecSystemsStuff/ticcs1230/simplelink_cc32xx_sdk_7_10_00_13/source\ti/drivers/lib/gcc/m4/drivers_cc32xx.a(List.c.obj)
 .text.List_get
                0x00000000       0x28 D:/EmbeddecSystemsStuff/ticcs1230/simplelink_cc32xx_sdk_7_10_00_13/source\ti/drivers/lib/gcc/m4/drivers_cc32xx.a(List.c.obj)
 .text.List_insert
                0x00000000       0x30 D:/EmbeddecSystemsStuff/ticcs1230/simplelink_cc32xx_sdk_7_10_00_13/source\ti/drivers/lib/gcc/m4/drivers_cc32xx.a(List.c.obj)
 .text.List_putHead
                0x00000000       0x2c D:/EmbeddecSystemsStuff/ticcs1230/simplelink_cc32xx_sdk_7_10_00_13/source\ti/drivers/lib/gcc/m4/drivers_cc32xx.a(List.c.obj)
 .text          0x00000000        0x0 D:/EmbeddecSystemsStuff/ticcs1230/simplelink_cc32xx_sdk_7_10_00_13/source\ti/drivers/lib/gcc/m4/drivers_cc32xx.a(RingBuf.c.obj)
 .data          0x00000000        0x0 D:/EmbeddecSystemsStuff/ticcs1230/simplelink_cc32xx_sdk_7_10_00_13/source\ti/drivers/lib/gcc/m4/drivers_cc32xx.a(RingBuf.c.obj)
 .bss           0x00000000        0x0 D:/EmbeddecSystemsStuff/ticcs1230/simplelink_cc32xx_sdk_7_10_00_13/source\ti/drivers/lib/gcc/m4/drivers_cc32xx.a(RingBuf.c.obj)
 .text.RingBuf_get
                0x00000000       0x40 D:/EmbeddecSystemsStuff/ticcs1230/simplelink_cc32xx_sdk_7_10_00_13/source\ti/drivers/lib/gcc/m4/drivers_cc32xx.a(RingBuf.c.obj)
 .text.RingBuf_getMaxCount
                0x00000000        0x4 D:/EmbeddecSystemsStuff/ticcs1230/simplelink_cc32xx_sdk_7_10_00_13/source\ti/drivers/lib/gcc/m4/drivers_cc32xx.a(RingBuf.c.obj)
 .text.RingBuf_getn
                0x00000000       0x50 D:/EmbeddecSystemsStuff/ticcs1230/simplelink_cc32xx_sdk_7_10_00_13/source\ti/drivers/lib/gcc/m4/drivers_cc32xx.a(RingBuf.c.obj)
 .text.RingBuf_flush
                0x00000000       0x1c D:/EmbeddecSystemsStuff/ticcs1230/simplelink_cc32xx_sdk_7_10_00_13/source\ti/drivers/lib/gcc/m4/drivers_cc32xx.a(RingBuf.c.obj)
 .text.RingBuf_isFull
                0x00000000       0x10 D:/EmbeddecSystemsStuff/ticcs1230/simplelink_cc32xx_sdk_7_10_00_13/source\ti/drivers/lib/gcc/m4/drivers_cc32xx.a(RingBuf.c.obj)
 .text.RingBuf_peek
                0x00000000       0x1c D:/EmbeddecSystemsStuff/ticcs1230/simplelink_cc32xx_sdk_7_10_00_13/source\ti/drivers/lib/gcc/m4/drivers_cc32xx.a(RingBuf.c.obj)
 .text.RingBuf_putn
                0x00000000       0x7c D:/EmbeddecSystemsStuff/ticcs1230/simplelink_cc32xx_sdk_7_10_00_13/source\ti/drivers/lib/gcc/m4/drivers_cc32xx.a(RingBuf.c.obj)
 .text          0x00000000        0x0 D:/EmbeddecSystemsStuff/ticcs1230/simplelink_cc32xx_sdk_7_10_00_13/source\ti/drivers/lib/gcc/m4/drivers_cc32xx.a(UDMACC32XX.c.obj)
 .data          0x00000000        0x0 D:/EmbeddecSystemsStuff/ticcs1230/simplelink_cc32xx_sdk_7_10_00_13/source\ti/drivers/lib/gcc/m4/drivers_cc32xx.a(UDMACC32XX.c.obj)
 .bss           0x00000000        0x0 D:/EmbeddecSystemsStuff/ticcs1230/simplelink_cc32xx_sdk_7_10_00_13/source\ti/drivers/lib/gcc/m4/drivers_cc32xx.a(UDMACC32XX.c.obj)
 .text          0x00000000        0x0 D:/EmbeddecSystemsStuff/ticcs1230/simplelink_cc32xx_sdk_7_10_00_13/kernel/nortos\lib/gcc/m4/nortos_cc32xx.a(NoRTOS.c.obj)
 .data          0x00000000        0x0 D:/EmbeddecSystemsStuff/ticcs1230/simplelink_cc32xx_sdk_7_10_00_13/kernel/nortos\lib/gcc/m4/nortos_cc32xx.a(NoRTOS.c.obj)
 .bss           0x00000000        0x0 D:/EmbeddecSystemsStuff/ticcs1230/simplelink_cc32xx_sdk_7_10_00_13/kernel/nortos\lib/gcc/m4/nortos_cc32xx.a(NoRTOS.c.obj)
 .text.NoRTOS_getConfig
                0x00000000       0x20 D:/EmbeddecSystemsStuff/ticcs1230/simplelink_cc32xx_sdk_7_10_00_13/kernel/nortos\lib/gcc/m4/nortos_cc32xx.a(NoRTOS.c.obj)
 .text.NoRTOS_setConfig
                0x00000000       0x28 D:/EmbeddecSystemsStuff/ticcs1230/simplelink_cc32xx_sdk_7_10_00_13/kernel/nortos\lib/gcc/m4/nortos_cc32xx.a(NoRTOS.c.obj)
 .text          0x00000000        0x0 D:/EmbeddecSystemsStuff/ticcs1230/simplelink_cc32xx_sdk_7_10_00_13/kernel/nortos\lib/gcc/m4/nortos_cc32xx.a(SemaphoreP_nortos.c.obj)
 .data          0x00000000        0x0 D:/EmbeddecSystemsStuff/ticcs1230/simplelink_cc32xx_sdk_7_10_00_13/kernel/nortos\lib/gcc/m4/nortos_cc32xx.a(SemaphoreP_nortos.c.obj)
 .bss           0x00000000        0x0 D:/EmbeddecSystemsStuff/ticcs1230/simplelink_cc32xx_sdk_7_10_00_13/kernel/nortos\lib/gcc/m4/nortos_cc32xx.a(SemaphoreP_nortos.c.obj)
 .text.SemaphoreP_construct
                0x00000000       0x60 D:/EmbeddecSystemsStuff/ticcs1230/simplelink_cc32xx_sdk_7_10_00_13/kernel/nortos\lib/gcc/m4/nortos_cc32xx.a(SemaphoreP_nortos.c.obj)
 .text.SemaphoreP_create
                0x00000000       0x64 D:/EmbeddecSystemsStuff/ticcs1230/simplelink_cc32xx_sdk_7_10_00_13/kernel/nortos\lib/gcc/m4/nortos_cc32xx.a(SemaphoreP_nortos.c.obj)
 .text.SemaphoreP_createBinaryCallback
                0x00000000       0x3c D:/EmbeddecSystemsStuff/ticcs1230/simplelink_cc32xx_sdk_7_10_00_13/kernel/nortos\lib/gcc/m4/nortos_cc32xx.a(SemaphoreP_nortos.c.obj)
 .text.SemaphoreP_Params_init
                0x00000000       0x14 D:/EmbeddecSystemsStuff/ticcs1230/simplelink_cc32xx_sdk_7_10_00_13/kernel/nortos\lib/gcc/m4/nortos_cc32xx.a(SemaphoreP_nortos.c.obj)
 .text.SemaphoreP_staticObjectSize
                0x00000000        0x4 D:/EmbeddecSystemsStuff/ticcs1230/simplelink_cc32xx_sdk_7_10_00_13/kernel/nortos\lib/gcc/m4/nortos_cc32xx.a(SemaphoreP_nortos.c.obj)
 .text          0x00000000        0x0 D:/EmbeddecSystemsStuff/ticcs1230/simplelink_cc32xx_sdk_7_10_00_13/kernel/nortos\lib/gcc/m4/nortos_cc32xx.a(ClockPSysTick_nortos.c.obj)
 .data          0x00000000        0x0 D:/EmbeddecSystemsStuff/ticcs1230/simplelink_cc32xx_sdk_7_10_00_13/kernel/nortos\lib/gcc/m4/nortos_cc32xx.a(ClockPSysTick_nortos.c.obj)
 .bss           0x00000000        0x0 D:/EmbeddecSystemsStuff/ticcs1230/simplelink_cc32xx_sdk_7_10_00_13/kernel/nortos\lib/gcc/m4/nortos_cc32xx.a(ClockPSysTick_nortos.c.obj)
 .text.ClockP_delete
                0x00000000       0x48 D:/EmbeddecSystemsStuff/ticcs1230/simplelink_cc32xx_sdk_7_10_00_13/kernel/nortos\lib/gcc/m4/nortos_cc32xx.a(ClockPSysTick_nortos.c.obj)
 .text.ClockP_getSystemTickPeriod
                0x00000000        0xc D:/EmbeddecSystemsStuff/ticcs1230/simplelink_cc32xx_sdk_7_10_00_13/kernel/nortos\lib/gcc/m4/nortos_cc32xx.a(ClockPSysTick_nortos.c.obj)
 .text.ClockP_getTimeout
                0x00000000       0x14 D:/EmbeddecSystemsStuff/ticcs1230/simplelink_cc32xx_sdk_7_10_00_13/kernel/nortos\lib/gcc/m4/nortos_cc32xx.a(ClockPSysTick_nortos.c.obj)
 .text.ClockP_Params_init
                0x00000000        0xc D:/EmbeddecSystemsStuff/ticcs1230/simplelink_cc32xx_sdk_7_10_00_13/kernel/nortos\lib/gcc/m4/nortos_cc32xx.a(ClockPSysTick_nortos.c.obj)
 .text.ClockP_setTimeout
                0x00000000        0x4 D:/EmbeddecSystemsStuff/ticcs1230/simplelink_cc32xx_sdk_7_10_00_13/kernel/nortos\lib/gcc/m4/nortos_cc32xx.a(ClockPSysTick_nortos.c.obj)
 .text.ClockP_setPeriod
                0x00000000        0x4 D:/EmbeddecSystemsStuff/ticcs1230/simplelink_cc32xx_sdk_7_10_00_13/kernel/nortos\lib/gcc/m4/nortos_cc32xx.a(ClockPSysTick_nortos.c.obj)
 .text.ClockP_sleep
                0x00000000       0xa0 D:/EmbeddecSystemsStuff/ticcs1230/simplelink_cc32xx_sdk_7_10_00_13/kernel/nortos\lib/gcc/m4/nortos_cc32xx.a(ClockPSysTick_nortos.c.obj)
 .text.ClockP_construct
                0x00000000       0xbc D:/EmbeddecSystemsStuff/ticcs1230/simplelink_cc32xx_sdk_7_10_00_13/kernel/nortos\lib/gcc/m4/nortos_cc32xx.a(ClockPSysTick_nortos.c.obj)
 .text.ClockP_create
                0x00000000       0xb8 D:/EmbeddecSystemsStuff/ticcs1230/simplelink_cc32xx_sdk_7_10_00_13/kernel/nortos\lib/gcc/m4/nortos_cc32xx.a(ClockPSysTick_nortos.c.obj)
 .text.ClockP_staticObjectSize
                0x00000000        0x4 D:/EmbeddecSystemsStuff/ticcs1230/simplelink_cc32xx_sdk_7_10_00_13/kernel/nortos\lib/gcc/m4/nortos_cc32xx.a(ClockPSysTick_nortos.c.obj)
 .text.ClockP_stop
                0x00000000       0x54 D:/EmbeddecSystemsStuff/ticcs1230/simplelink_cc32xx_sdk_7_10_00_13/kernel/nortos\lib/gcc/m4/nortos_cc32xx.a(ClockPSysTick_nortos.c.obj)
 .text.ClockP_usleep
                0x00000000      0x16c D:/EmbeddecSystemsStuff/ticcs1230/simplelink_cc32xx_sdk_7_10_00_13/kernel/nortos\lib/gcc/m4/nortos_cc32xx.a(ClockPSysTick_nortos.c.obj)
 .text          0x00000000        0x0 D:/EmbeddecSystemsStuff/ticcs1230/simplelink_cc32xx_sdk_7_10_00_13/kernel/nortos\lib/gcc/m4/nortos_cc32xx.a(HwiPCC32XX_nortos.c.obj)
 .data          0x00000000        0x0 D:/EmbeddecSystemsStuff/ticcs1230/simplelink_cc32xx_sdk_7_10_00_13/kernel/nortos\lib/gcc/m4/nortos_cc32xx.a(HwiPCC32XX_nortos.c.obj)
 .bss           0x00000000        0x0 D:/EmbeddecSystemsStuff/ticcs1230/simplelink_cc32xx_sdk_7_10_00_13/kernel/nortos\lib/gcc/m4/nortos_cc32xx.a(HwiPCC32XX_nortos.c.obj)
 .text.HwiP_plug
                0x00000000        0x4 D:/EmbeddecSystemsStuff/ticcs1230/simplelink_cc32xx_sdk_7_10_00_13/kernel/nortos\lib/gcc/m4/nortos_cc32xx.a(HwiPCC32XX_nortos.c.obj)
 .text.HwiP_setFunc
                0x00000000       0x1c D:/EmbeddecSystemsStuff/ticcs1230/simplelink_cc32xx_sdk_7_10_00_13/kernel/nortos\lib/gcc/m4/nortos_cc32xx.a(HwiPCC32XX_nortos.c.obj)
 .text.HwiP_inSwi
                0x00000000       0x1c D:/EmbeddecSystemsStuff/ticcs1230/simplelink_cc32xx_sdk_7_10_00_13/kernel/nortos\lib/gcc/m4/nortos_cc32xx.a(HwiPCC32XX_nortos.c.obj)
 .text.HwiP_setPriority
                0x00000000        0x8 D:/EmbeddecSystemsStuff/ticcs1230/simplelink_cc32xx_sdk_7_10_00_13/kernel/nortos\lib/gcc/m4/nortos_cc32xx.a(HwiPCC32XX_nortos.c.obj)
 .text.HwiP_staticObjectSize
                0x00000000        0x4 D:/EmbeddecSystemsStuff/ticcs1230/simplelink_cc32xx_sdk_7_10_00_13/kernel/nortos\lib/gcc/m4/nortos_cc32xx.a(HwiPCC32XX_nortos.c.obj)
 .bss.HwiP_key  0x00000000        0x4 D:/EmbeddecSystemsStuff/ticcs1230/simplelink_cc32xx_sdk_7_10_00_13/kernel/nortos\lib/gcc/m4/nortos_cc32xx.a(HwiPCC32XX_nortos.c.obj)
 .text          0x00000000        0x0 D:/EmbeddecSystemsStuff/ticcs1230/simplelink_cc32xx_sdk_7_10_00_13/kernel/nortos\lib/gcc/m4/nortos_cc32xx.a(PowerCC32XX_nortos.c.obj)
 .data          0x00000000        0x0 D:/EmbeddecSystemsStuff/ticcs1230/simplelink_cc32xx_sdk_7_10_00_13/kernel/nortos\lib/gcc/m4/nortos_cc32xx.a(PowerCC32XX_nortos.c.obj)
 .bss           0x00000000        0x0 D:/EmbeddecSystemsStuff/ticcs1230/simplelink_cc32xx_sdk_7_10_00_13/kernel/nortos\lib/gcc/m4/nortos_cc32xx.a(PowerCC32XX_nortos.c.obj)
 .bss.idleTime  0x00000000        0x4 D:/EmbeddecSystemsStuff/ticcs1230/simplelink_cc32xx_sdk_7_10_00_13/kernel/nortos\lib/gcc/m4/nortos_cc32xx.a(PowerCC32XX_nortos.c.obj)
 .text          0x00000000        0x0 D:/EmbeddecSystemsStuff/ticcs1230/simplelink_cc32xx_sdk_7_10_00_13/kernel/nortos\lib/gcc/m4/nortos_cc32xx.a(startup_cc32xx_gcc.c.obj)
 .data          0x00000000        0x0 D:/EmbeddecSystemsStuff/ticcs1230/simplelink_cc32xx_sdk_7_10_00_13/kernel/nortos\lib/gcc/m4/nortos_cc32xx.a(startup_cc32xx_gcc.c.obj)
 .bss           0x00000000        0x0 D:/EmbeddecSystemsStuff/ticcs1230/simplelink_cc32xx_sdk_7_10_00_13/kernel/nortos\lib/gcc/m4/nortos_cc32xx.a(startup_cc32xx_gcc.c.obj)
 .data.__dso_handle
                0x00000000        0x4 D:/EmbeddecSystemsStuff/ticcs1230/simplelink_cc32xx_sdk_7_10_00_13/kernel/nortos\lib/gcc/m4/nortos_cc32xx.a(startup_cc32xx_gcc.c.obj)
 .text          0x00000000        0x0 D:/EmbeddecSystemsStuff/ticcs1230/simplelink_cc32xx_sdk_7_10_00_13/kernel/nortos\lib/gcc/m4/nortos_cc32xx.a(SwiP_nortos.c.obj)
 .data          0x00000000        0x0 D:/EmbeddecSystemsStuff/ticcs1230/simplelink_cc32xx_sdk_7_10_00_13/kernel/nortos\lib/gcc/m4/nortos_cc32xx.a(SwiP_nortos.c.obj)
 .bss           0x00000000        0x0 D:/EmbeddecSystemsStuff/ticcs1230/simplelink_cc32xx_sdk_7_10_00_13/kernel/nortos\lib/gcc/m4/nortos_cc32xx.a(SwiP_nortos.c.obj)
 .text.SwiP_Params_init
                0x00000000       0x10 D:/EmbeddecSystemsStuff/ticcs1230/simplelink_cc32xx_sdk_7_10_00_13/kernel/nortos\lib/gcc/m4/nortos_cc32xx.a(SwiP_nortos.c.obj)
 .text.SwiP_construct
                0x00000000      0x104 D:/EmbeddecSystemsStuff/ticcs1230/simplelink_cc32xx_sdk_7_10_00_13/kernel/nortos\lib/gcc/m4/nortos_cc32xx.a(SwiP_nortos.c.obj)
 .text.SwiP_create
                0x00000000      0x120 D:/EmbeddecSystemsStuff/ticcs1230/simplelink_cc32xx_sdk_7_10_00_13/kernel/nortos\lib/gcc/m4/nortos_cc32xx.a(SwiP_nortos.c.obj)
 .text.SwiP_destruct
                0x00000000       0x38 D:/EmbeddecSystemsStuff/ticcs1230/simplelink_cc32xx_sdk_7_10_00_13/kernel/nortos\lib/gcc/m4/nortos_cc32xx.a(SwiP_nortos.c.obj)
 .text.SwiP_delete
                0x00000000       0x3c D:/EmbeddecSystemsStuff/ticcs1230/simplelink_cc32xx_sdk_7_10_00_13/kernel/nortos\lib/gcc/m4/nortos_cc32xx.a(SwiP_nortos.c.obj)
 .text.SwiP_dispatch
                0x00000000       0xd4 D:/EmbeddecSystemsStuff/ticcs1230/simplelink_cc32xx_sdk_7_10_00_13/kernel/nortos\lib/gcc/m4/nortos_cc32xx.a(SwiP_nortos.c.obj)
 .text.SwiP_handleHwi
                0x00000000       0x18 D:/EmbeddecSystemsStuff/ticcs1230/simplelink_cc32xx_sdk_7_10_00_13/kernel/nortos\lib/gcc/m4/nortos_cc32xx.a(SwiP_nortos.c.obj)
 .text.SwiP_getTrigger
                0x00000000        0xc D:/EmbeddecSystemsStuff/ticcs1230/simplelink_cc32xx_sdk_7_10_00_13/kernel/nortos\lib/gcc/m4/nortos_cc32xx.a(SwiP_nortos.c.obj)
 .text.SwiP_andn
                0x00000000       0x88 D:/EmbeddecSystemsStuff/ticcs1230/simplelink_cc32xx_sdk_7_10_00_13/kernel/nortos\lib/gcc/m4/nortos_cc32xx.a(SwiP_nortos.c.obj)
 .text.SwiP_dec
                0x00000000       0x84 D:/EmbeddecSystemsStuff/ticcs1230/simplelink_cc32xx_sdk_7_10_00_13/kernel/nortos\lib/gcc/m4/nortos_cc32xx.a(SwiP_nortos.c.obj)
 .text.SwiP_inc
                0x00000000       0x7c D:/EmbeddecSystemsStuff/ticcs1230/simplelink_cc32xx_sdk_7_10_00_13/kernel/nortos\lib/gcc/m4/nortos_cc32xx.a(SwiP_nortos.c.obj)
 .text.SwiP_inISR
                0x00000000        0x4 D:/EmbeddecSystemsStuff/ticcs1230/simplelink_cc32xx_sdk_7_10_00_13/kernel/nortos\lib/gcc/m4/nortos_cc32xx.a(SwiP_nortos.c.obj)
 .text.SwiP_or  0x00000000       0x80 D:/EmbeddecSystemsStuff/ticcs1230/simplelink_cc32xx_sdk_7_10_00_13/kernel/nortos\lib/gcc/m4/nortos_cc32xx.a(SwiP_nortos.c.obj)
 .text.SwiP_post
                0x00000000       0x70 D:/EmbeddecSystemsStuff/ticcs1230/simplelink_cc32xx_sdk_7_10_00_13/kernel/nortos\lib/gcc/m4/nortos_cc32xx.a(SwiP_nortos.c.obj)
 .text.SwiP_setPriority
                0x00000000       0x20 D:/EmbeddecSystemsStuff/ticcs1230/simplelink_cc32xx_sdk_7_10_00_13/kernel/nortos\lib/gcc/m4/nortos_cc32xx.a(SwiP_nortos.c.obj)
 .text.SwiP_staticObjectSize
                0x00000000        0x4 D:/EmbeddecSystemsStuff/ticcs1230/simplelink_cc32xx_sdk_7_10_00_13/kernel/nortos\lib/gcc/m4/nortos_cc32xx.a(SwiP_nortos.c.obj)
 .bss.SwiP_currentTrigger
                0x00000000        0x4 D:/EmbeddecSystemsStuff/ticcs1230/simplelink_cc32xx_sdk_7_10_00_13/kernel/nortos\lib/gcc/m4/nortos_cc32xx.a(SwiP_nortos.c.obj)
 .bss.SwiP_hwiStruct
                0x00000000       0x1c D:/EmbeddecSystemsStuff/ticcs1230/simplelink_cc32xx_sdk_7_10_00_13/kernel/nortos\lib/gcc/m4/nortos_cc32xx.a(SwiP_nortos.c.obj)
 .bss.SwiP_initialized
                0x00000000        0x1 D:/EmbeddecSystemsStuff/ticcs1230/simplelink_cc32xx_sdk_7_10_00_13/kernel/nortos\lib/gcc/m4/nortos_cc32xx.a(SwiP_nortos.c.obj)
 .bss.SwiP_readyList
                0x00000000       0x20 D:/EmbeddecSystemsStuff/ticcs1230/simplelink_cc32xx_sdk_7_10_00_13/kernel/nortos\lib/gcc/m4/nortos_cc32xx.a(SwiP_nortos.c.obj)
 .rodata.SwiP_defaultParams
                0x00000000       0x10 D:/EmbeddecSystemsStuff/ticcs1230/simplelink_cc32xx_sdk_7_10_00_13/kernel/nortos\lib/gcc/m4/nortos_cc32xx.a(SwiP_nortos.c.obj)
 .text          0x00000000        0x0 D:/EmbeddecSystemsStuff/ticcs1230/simplelink_cc32xx_sdk_7_10_00_13/source\ti/devices/cc32xx/driverlib/gcc/Release/driverlib.a(cpu.obj)
 .data          0x00000000        0x0 D:/EmbeddecSystemsStuff/ticcs1230/simplelink_cc32xx_sdk_7_10_00_13/source\ti/devices/cc32xx/driverlib/gcc/Release/driverlib.a(cpu.obj)
 .bss           0x00000000        0x0 D:/EmbeddecSystemsStuff/ticcs1230/simplelink_cc32xx_sdk_7_10_00_13/source\ti/devices/cc32xx/driverlib/gcc/Release/driverlib.a(cpu.obj)
 .text.CPUbasepriSet
                0x00000000       0x10 D:/EmbeddecSystemsStuff/ticcs1230/simplelink_cc32xx_sdk_7_10_00_13/source\ti/devices/cc32xx/driverlib/gcc/Release/driverlib.a(cpu.obj)
 .text.CPUbasepriGet
                0x00000000        0xc D:/EmbeddecSystemsStuff/ticcs1230/simplelink_cc32xx_sdk_7_10_00_13/source\ti/devices/cc32xx/driverlib/gcc/Release/driverlib.a(cpu.obj)
 .text          0x00000000        0x0 D:/EmbeddecSystemsStuff/ticcs1230/simplelink_cc32xx_sdk_7_10_00_13/source\ti/devices/cc32xx/driverlib/gcc/Release/driverlib.a(gpio.obj)
 .data          0x00000000        0x0 D:/EmbeddecSystemsStuff/ticcs1230/simplelink_cc32xx_sdk_7_10_00_13/source\ti/devices/cc32xx/driverlib/gcc/Release/driverlib.a(gpio.obj)
 .bss           0x00000000        0x0 D:/EmbeddecSystemsStuff/ticcs1230/simplelink_cc32xx_sdk_7_10_00_13/source\ti/devices/cc32xx/driverlib/gcc/Release/driverlib.a(gpio.obj)
 .text.GPIOGetIntNumber
                0x00000000       0x70 D:/EmbeddecSystemsStuff/ticcs1230/simplelink_cc32xx_sdk_7_10_00_13/source\ti/devices/cc32xx/driverlib/gcc/Release/driverlib.a(gpio.obj)
 .text.GPIODirModeGet
                0x00000000       0x3a D:/EmbeddecSystemsStuff/ticcs1230/simplelink_cc32xx_sdk_7_10_00_13/source\ti/devices/cc32xx/driverlib/gcc/Release/driverlib.a(gpio.obj)
 .text.GPIOIntTypeGet
                0x00000000       0x74 D:/EmbeddecSystemsStuff/ticcs1230/simplelink_cc32xx_sdk_7_10_00_13/source\ti/devices/cc32xx/driverlib/gcc/Release/driverlib.a(gpio.obj)
 .text.GPIOIntRegister
                0x00000000       0x2a D:/EmbeddecSystemsStuff/ticcs1230/simplelink_cc32xx_sdk_7_10_00_13/source\ti/devices/cc32xx/driverlib/gcc/Release/driverlib.a(gpio.obj)
 .text.GPIOIntUnregister
                0x00000000       0x26 D:/EmbeddecSystemsStuff/ticcs1230/simplelink_cc32xx_sdk_7_10_00_13/source\ti/devices/cc32xx/driverlib/gcc/Release/driverlib.a(gpio.obj)
 .text.GPIOPinRead
                0x00000000       0x22 D:/EmbeddecSystemsStuff/ticcs1230/simplelink_cc32xx_sdk_7_10_00_13/source\ti/devices/cc32xx/driverlib/gcc/Release/driverlib.a(gpio.obj)
 .text.GPIODMATriggerEnable
                0x00000000       0x78 D:/EmbeddecSystemsStuff/ticcs1230/simplelink_cc32xx_sdk_7_10_00_13/source\ti/devices/cc32xx/driverlib/gcc/Release/driverlib.a(gpio.obj)
 .text.GPIODMATriggerDisable
                0x00000000       0x78 D:/EmbeddecSystemsStuff/ticcs1230/simplelink_cc32xx_sdk_7_10_00_13/source\ti/devices/cc32xx/driverlib/gcc/Release/driverlib.a(gpio.obj)
 .text          0x00000000        0x0 D:/EmbeddecSystemsStuff/ticcs1230/simplelink_cc32xx_sdk_7_10_00_13/source\ti/devices/cc32xx/driverlib/gcc/Release/driverlib.a(hwspinlock.obj)
 .data          0x00000000        0x0 D:/EmbeddecSystemsStuff/ticcs1230/simplelink_cc32xx_sdk_7_10_00_13/source\ti/devices/cc32xx/driverlib/gcc/Release/driverlib.a(hwspinlock.obj)
 .bss           0x00000000        0x0 D:/EmbeddecSystemsStuff/ticcs1230/simplelink_cc32xx_sdk_7_10_00_13/source\ti/devices/cc32xx/driverlib/gcc/Release/driverlib.a(hwspinlock.obj)
 .rodata.HwSpinLock_RegLst
                0x00000000        0x4 D:/EmbeddecSystemsStuff/ticcs1230/simplelink_cc32xx_sdk_7_10_00_13/source\ti/devices/cc32xx/driverlib/gcc/Release/driverlib.a(hwspinlock.obj)
 .text.HwSpinLockAcquire
                0x00000000       0x4c D:/EmbeddecSystemsStuff/ticcs1230/simplelink_cc32xx_sdk_7_10_00_13/source\ti/devices/cc32xx/driverlib/gcc/Release/driverlib.a(hwspinlock.obj)
 .text.HwSpinLockTryAcquire
                0x00000000       0x7c D:/EmbeddecSystemsStuff/ticcs1230/simplelink_cc32xx_sdk_7_10_00_13/source\ti/devices/cc32xx/driverlib/gcc/Release/driverlib.a(hwspinlock.obj)
 .text.HwSpinLockRelease
                0x00000000       0x44 D:/EmbeddecSystemsStuff/ticcs1230/simplelink_cc32xx_sdk_7_10_00_13/source\ti/devices/cc32xx/driverlib/gcc/Release/driverlib.a(hwspinlock.obj)
 .text.HwSpinLockTest
                0x00000000       0x74 D:/EmbeddecSystemsStuff/ticcs1230/simplelink_cc32xx_sdk_7_10_00_13/source\ti/devices/cc32xx/driverlib/gcc/Release/driverlib.a(hwspinlock.obj)
 .debug_info    0x00000000      0x21f D:/EmbeddecSystemsStuff/ticcs1230/simplelink_cc32xx_sdk_7_10_00_13/source\ti/devices/cc32xx/driverlib/gcc/Release/driverlib.a(hwspinlock.obj)
 .debug_abbrev  0x00000000       0xc8 D:/EmbeddecSystemsStuff/ticcs1230/simplelink_cc32xx_sdk_7_10_00_13/source\ti/devices/cc32xx/driverlib/gcc/Release/driverlib.a(hwspinlock.obj)
 .debug_aranges
                0x00000000       0x38 D:/EmbeddecSystemsStuff/ticcs1230/simplelink_cc32xx_sdk_7_10_00_13/source\ti/devices/cc32xx/driverlib/gcc/Release/driverlib.a(hwspinlock.obj)
 .debug_ranges  0x00000000       0x28 D:/EmbeddecSystemsStuff/ticcs1230/simplelink_cc32xx_sdk_7_10_00_13/source\ti/devices/cc32xx/driverlib/gcc/Release/driverlib.a(hwspinlock.obj)
 .debug_line    0x00000000      0x29d D:/EmbeddecSystemsStuff/ticcs1230/simplelink_cc32xx_sdk_7_10_00_13/source\ti/devices/cc32xx/driverlib/gcc/Release/driverlib.a(hwspinlock.obj)
 .debug_str     0x00000000      0x2ae D:/EmbeddecSystemsStuff/ticcs1230/simplelink_cc32xx_sdk_7_10_00_13/source\ti/devices/cc32xx/driverlib/gcc/Release/driverlib.a(hwspinlock.obj)
 .comment       0x00000000       0x7a D:/EmbeddecSystemsStuff/ticcs1230/simplelink_cc32xx_sdk_7_10_00_13/source\ti/devices/cc32xx/driverlib/gcc/Release/driverlib.a(hwspinlock.obj)
 .debug_frame   0x00000000       0xb0 D:/EmbeddecSystemsStuff/ticcs1230/simplelink_cc32xx_sdk_7_10_00_13/source\ti/devices/cc32xx/driverlib/gcc/Release/driverlib.a(hwspinlock.obj)
 .ARM.attributes
                0x00000000       0x2e D:/EmbeddecSystemsStuff/ticcs1230/simplelink_cc32xx_sdk_7_10_00_13/source\ti/devices/cc32xx/driverlib/gcc/Release/driverlib.a(hwspinlock.obj)
 .text          0x00000000        0x0 D:/EmbeddecSystemsStuff/ticcs1230/simplelink_cc32xx_sdk_7_10_00_13/source\ti/devices/cc32xx/driverlib/gcc/Release/driverlib.a(i2c.obj)
 .data          0x00000000        0x0 D:/EmbeddecSystemsStuff/ticcs1230/simplelink_cc32xx_sdk_7_10_00_13/source\ti/devices/cc32xx/driverlib/gcc/Release/driverlib.a(i2c.obj)
 .bss           0x00000000        0x0 D:/EmbeddecSystemsStuff/ticcs1230/simplelink_cc32xx_sdk_7_10_00_13/source\ti/devices/cc32xx/driverlib/gcc/Release/driverlib.a(i2c.obj)
 .rodata.g_ppui32I2CIntMap
                0x00000000        0x8 D:/EmbeddecSystemsStuff/ticcs1230/simplelink_cc32xx_sdk_7_10_00_13/source\ti/devices/cc32xx/driverlib/gcc/Release/driverlib.a(i2c.obj)
 .rodata.g_i8I2CIntMapRows
                0x00000000        0x4 D:/EmbeddecSystemsStuff/ticcs1230/simplelink_cc32xx_sdk_7_10_00_13/source\ti/devices/cc32xx/driverlib/gcc/Release/driverlib.a(i2c.obj)
 .text._I2CIntNumberGet
                0x00000000       0x50 D:/EmbeddecSystemsStuff/ticcs1230/simplelink_cc32xx_sdk_7_10_00_13/source\ti/devices/cc32xx/driverlib/gcc/Release/driverlib.a(i2c.obj)
 .text.I2CSlaveInit
                0x00000000       0x26 D:/EmbeddecSystemsStuff/ticcs1230/simplelink_cc32xx_sdk_7_10_00_13/source\ti/devices/cc32xx/driverlib/gcc/Release/driverlib.a(i2c.obj)
 .text.I2CSlaveAddressSet
                0x00000000       0x46 D:/EmbeddecSystemsStuff/ticcs1230/simplelink_cc32xx_sdk_7_10_00_13/source\ti/devices/cc32xx/driverlib/gcc/Release/driverlib.a(i2c.obj)
 .text.I2CSlaveEnable
                0x00000000       0x2e D:/EmbeddecSystemsStuff/ticcs1230/simplelink_cc32xx_sdk_7_10_00_13/source\ti/devices/cc32xx/driverlib/gcc/Release/driverlib.a(i2c.obj)
 .text.I2CSlaveDisable
                0x00000000       0x2e D:/EmbeddecSystemsStuff/ticcs1230/simplelink_cc32xx_sdk_7_10_00_13/source\ti/devices/cc32xx/driverlib/gcc/Release/driverlib.a(i2c.obj)
 .text.I2CIntRegister
                0x00000000       0x28 D:/EmbeddecSystemsStuff/ticcs1230/simplelink_cc32xx_sdk_7_10_00_13/source\ti/devices/cc32xx/driverlib/gcc/Release/driverlib.a(i2c.obj)
 .text.I2CIntUnregister
                0x00000000       0x24 D:/EmbeddecSystemsStuff/ticcs1230/simplelink_cc32xx_sdk_7_10_00_13/source\ti/devices/cc32xx/driverlib/gcc/Release/driverlib.a(i2c.obj)
 .text.I2CMasterIntEnable
                0x00000000       0x1c D:/EmbeddecSystemsStuff/ticcs1230/simplelink_cc32xx_sdk_7_10_00_13/source\ti/devices/cc32xx/driverlib/gcc/Release/driverlib.a(i2c.obj)
 .text.I2CSlaveIntEnable
                0x00000000       0x26 D:/EmbeddecSystemsStuff/ticcs1230/simplelink_cc32xx_sdk_7_10_00_13/source\ti/devices/cc32xx/driverlib/gcc/Release/driverlib.a(i2c.obj)
 .text.I2CSlaveIntEnableEx
                0x00000000       0x2a D:/EmbeddecSystemsStuff/ticcs1230/simplelink_cc32xx_sdk_7_10_00_13/source\ti/devices/cc32xx/driverlib/gcc/Release/driverlib.a(i2c.obj)
 .text.I2CMasterIntDisable
                0x00000000       0x1c D:/EmbeddecSystemsStuff/ticcs1230/simplelink_cc32xx_sdk_7_10_00_13/source\ti/devices/cc32xx/driverlib/gcc/Release/driverlib.a(i2c.obj)
 .text.I2CSlaveIntDisable
                0x00000000       0x26 D:/EmbeddecSystemsStuff/ticcs1230/simplelink_cc32xx_sdk_7_10_00_13/source\ti/devices/cc32xx/driverlib/gcc/Release/driverlib.a(i2c.obj)
 .text.I2CSlaveIntDisableEx
                0x00000000       0x2a D:/EmbeddecSystemsStuff/ticcs1230/simplelink_cc32xx_sdk_7_10_00_13/source\ti/devices/cc32xx/driverlib/gcc/Release/driverlib.a(i2c.obj)
 .text.I2CMasterIntStatus
                0x00000000       0x3e D:/EmbeddecSystemsStuff/ticcs1230/simplelink_cc32xx_sdk_7_10_00_13/source\ti/devices/cc32xx/driverlib/gcc/Release/driverlib.a(i2c.obj)
 .text.I2CSlaveIntStatus
                0x00000000       0x42 D:/EmbeddecSystemsStuff/ticcs1230/simplelink_cc32xx_sdk_7_10_00_13/source\ti/devices/cc32xx/driverlib/gcc/Release/driverlib.a(i2c.obj)
 .text.I2CSlaveIntStatusEx
                0x00000000       0x2e D:/EmbeddecSystemsStuff/ticcs1230/simplelink_cc32xx_sdk_7_10_00_13/source\ti/devices/cc32xx/driverlib/gcc/Release/driverlib.a(i2c.obj)
 .text.I2CMasterIntClear
                0x00000000       0x26 D:/EmbeddecSystemsStuff/ticcs1230/simplelink_cc32xx_sdk_7_10_00_13/source\ti/devices/cc32xx/driverlib/gcc/Release/driverlib.a(i2c.obj)
 .text.I2CSlaveIntClear
                0x00000000       0x1e D:/EmbeddecSystemsStuff/ticcs1230/simplelink_cc32xx_sdk_7_10_00_13/source\ti/devices/cc32xx/driverlib/gcc/Release/driverlib.a(i2c.obj)
 .text.I2CSlaveIntClearEx
                0x00000000       0x20 D:/EmbeddecSystemsStuff/ticcs1230/simplelink_cc32xx_sdk_7_10_00_13/source\ti/devices/cc32xx/driverlib/gcc/Release/driverlib.a(i2c.obj)
 .text.I2CMasterLineStateGet
                0x00000000       0x18 D:/EmbeddecSystemsStuff/ticcs1230/simplelink_cc32xx_sdk_7_10_00_13/source\ti/devices/cc32xx/driverlib/gcc/Release/driverlib.a(i2c.obj)
 .text.I2CMasterBusy
                0x00000000       0x26 D:/EmbeddecSystemsStuff/ticcs1230/simplelink_cc32xx_sdk_7_10_00_13/source\ti/devices/cc32xx/driverlib/gcc/Release/driverlib.a(i2c.obj)
 .text.I2CMasterErr
                0x00000000       0x3c D:/EmbeddecSystemsStuff/ticcs1230/simplelink_cc32xx_sdk_7_10_00_13/source\ti/devices/cc32xx/driverlib/gcc/Release/driverlib.a(i2c.obj)
 .text.I2CMasterDataPut
                0x00000000       0x20 D:/EmbeddecSystemsStuff/ticcs1230/simplelink_cc32xx_sdk_7_10_00_13/source\ti/devices/cc32xx/driverlib/gcc/Release/driverlib.a(i2c.obj)
 .text.I2CMasterDataGet
                0x00000000       0x18 D:/EmbeddecSystemsStuff/ticcs1230/simplelink_cc32xx_sdk_7_10_00_13/source\ti/devices/cc32xx/driverlib/gcc/Release/driverlib.a(i2c.obj)
 .text.I2CSlaveACKOverride
                0x00000000       0x46 D:/EmbeddecSystemsStuff/ticcs1230/simplelink_cc32xx_sdk_7_10_00_13/source\ti/devices/cc32xx/driverlib/gcc/Release/driverlib.a(i2c.obj)
 .text.I2CSlaveACKValueSet
                0x00000000       0x46 D:/EmbeddecSystemsStuff/ticcs1230/simplelink_cc32xx_sdk_7_10_00_13/source\ti/devices/cc32xx/driverlib/gcc/Release/driverlib.a(i2c.obj)
 .text.I2CSlaveStatus
                0x00000000       0x1a D:/EmbeddecSystemsStuff/ticcs1230/simplelink_cc32xx_sdk_7_10_00_13/source\ti/devices/cc32xx/driverlib/gcc/Release/driverlib.a(i2c.obj)
 .text.I2CSlaveDataPut
                0x00000000       0x22 D:/EmbeddecSystemsStuff/ticcs1230/simplelink_cc32xx_sdk_7_10_00_13/source\ti/devices/cc32xx/driverlib/gcc/Release/driverlib.a(i2c.obj)
 .text.I2CSlaveDataGet
                0x00000000       0x1a D:/EmbeddecSystemsStuff/ticcs1230/simplelink_cc32xx_sdk_7_10_00_13/source\ti/devices/cc32xx/driverlib/gcc/Release/driverlib.a(i2c.obj)
 .text.I2CFIFODataPut
                0x00000000       0x34 D:/EmbeddecSystemsStuff/ticcs1230/simplelink_cc32xx_sdk_7_10_00_13/source\ti/devices/cc32xx/driverlib/gcc/Release/driverlib.a(i2c.obj)
 .text.I2CFIFODataGet
                0x00000000       0x2c D:/EmbeddecSystemsStuff/ticcs1230/simplelink_cc32xx_sdk_7_10_00_13/source\ti/devices/cc32xx/driverlib/gcc/Release/driverlib.a(i2c.obj)
 .text.I2CMasterBurstCountGet
                0x00000000       0x18 D:/EmbeddecSystemsStuff/ticcs1230/simplelink_cc32xx_sdk_7_10_00_13/source\ti/devices/cc32xx/driverlib/gcc/Release/driverlib.a(i2c.obj)
 .text.I2CMasterGlitchFilterConfigSet
                0x00000000       0x26 D:/EmbeddecSystemsStuff/ticcs1230/simplelink_cc32xx_sdk_7_10_00_13/source\ti/devices/cc32xx/driverlib/gcc/Release/driverlib.a(i2c.obj)
 .text.I2CSlaveFIFOEnable
                0x00000000       0x24 D:/EmbeddecSystemsStuff/ticcs1230/simplelink_cc32xx_sdk_7_10_00_13/source\ti/devices/cc32xx/driverlib/gcc/Release/driverlib.a(i2c.obj)
 .text.I2CSlaveFIFODisable
                0x00000000       0x1e D:/EmbeddecSystemsStuff/ticcs1230/simplelink_cc32xx_sdk_7_10_00_13/source\ti/devices/cc32xx/driverlib/gcc/Release/driverlib.a(i2c.obj)
 .text          0x00000000        0x0 D:/EmbeddecSystemsStuff/ticcs1230/simplelink_cc32xx_sdk_7_10_00_13/source\ti/devices/cc32xx/driverlib/gcc/Release/driverlib.a(interrupt.obj)
 .data          0x00000000        0x0 D:/EmbeddecSystemsStuff/ticcs1230/simplelink_cc32xx_sdk_7_10_00_13/source\ti/devices/cc32xx/driverlib/gcc/Release/driverlib.a(interrupt.obj)
 .bss           0x00000000        0x0 D:/EmbeddecSystemsStuff/ticcs1230/simplelink_cc32xx_sdk_7_10_00_13/source\ti/devices/cc32xx/driverlib/gcc/Release/driverlib.a(interrupt.obj)
 .rodata.g_pulPriority
                0x00000000       0x20 D:/EmbeddecSystemsStuff/ticcs1230/simplelink_cc32xx_sdk_7_10_00_13/source\ti/devices/cc32xx/driverlib/gcc/Release/driverlib.a(interrupt.obj)
 .text.IntPriorityGroupingSet
                0x00000000       0x30 D:/EmbeddecSystemsStuff/ticcs1230/simplelink_cc32xx_sdk_7_10_00_13/source\ti/devices/cc32xx/driverlib/gcc/Release/driverlib.a(interrupt.obj)
 .text.IntPriorityGroupingGet
                0x00000000       0x48 D:/EmbeddecSystemsStuff/ticcs1230/simplelink_cc32xx_sdk_7_10_00_13/source\ti/devices/cc32xx/driverlib/gcc/Release/driverlib.a(interrupt.obj)
 .text.IntPriorityGet
                0x00000000       0x30 D:/EmbeddecSystemsStuff/ticcs1230/simplelink_cc32xx_sdk_7_10_00_13/source\ti/devices/cc32xx/driverlib/gcc/Release/driverlib.a(interrupt.obj)
 .text.IntPriorityMaskSet
                0x00000000       0x16 D:/EmbeddecSystemsStuff/ticcs1230/simplelink_cc32xx_sdk_7_10_00_13/source\ti/devices/cc32xx/driverlib/gcc/Release/driverlib.a(interrupt.obj)
 .text.IntPriorityMaskGet
                0x00000000        0xe D:/EmbeddecSystemsStuff/ticcs1230/simplelink_cc32xx_sdk_7_10_00_13/source\ti/devices/cc32xx/driverlib/gcc/Release/driverlib.a(interrupt.obj)
 .text          0x00000000        0x0 D:/EmbeddecSystemsStuff/ticcs1230/simplelink_cc32xx_sdk_7_10_00_13/source\ti/devices/cc32xx/driverlib/gcc/Release/driverlib.a(pin.obj)
 .data          0x00000000        0x0 D:/EmbeddecSystemsStuff/ticcs1230/simplelink_cc32xx_sdk_7_10_00_13/source\ti/devices/cc32xx/driverlib/gcc/Release/driverlib.a(pin.obj)
 .bss           0x00000000        0x0 D:/EmbeddecSystemsStuff/ticcs1230/simplelink_cc32xx_sdk_7_10_00_13/source\ti/devices/cc32xx/driverlib/gcc/Release/driverlib.a(pin.obj)
 .text.PinTypeSPI
                0x00000000       0x24 D:/EmbeddecSystemsStuff/ticcs1230/simplelink_cc32xx_sdk_7_10_00_13/source\ti/devices/cc32xx/driverlib/gcc/Release/driverlib.a(pin.obj)
 .text.PinTypeI2S
                0x00000000       0x24 D:/EmbeddecSystemsStuff/ticcs1230/simplelink_cc32xx_sdk_7_10_00_13/source\ti/devices/cc32xx/driverlib/gcc/Release/driverlib.a(pin.obj)
 .text.PinTypeTimer
                0x00000000       0x24 D:/EmbeddecSystemsStuff/ticcs1230/simplelink_cc32xx_sdk_7_10_00_13/source\ti/devices/cc32xx/driverlib/gcc/Release/driverlib.a(pin.obj)
 .text.PinTypeCamera
                0x00000000       0x24 D:/EmbeddecSystemsStuff/ticcs1230/simplelink_cc32xx_sdk_7_10_00_13/source\ti/devices/cc32xx/driverlib/gcc/Release/driverlib.a(pin.obj)
 .text.PinTypeGPIO
                0x00000000       0x3a D:/EmbeddecSystemsStuff/ticcs1230/simplelink_cc32xx_sdk_7_10_00_13/source\ti/devices/cc32xx/driverlib/gcc/Release/driverlib.a(pin.obj)
 .text.PinTypeADC
                0x00000000       0x1e D:/EmbeddecSystemsStuff/ticcs1230/simplelink_cc32xx_sdk_7_10_00_13/source\ti/devices/cc32xx/driverlib/gcc/Release/driverlib.a(pin.obj)
 .text.PinTypeSDHost
                0x00000000       0x24 D:/EmbeddecSystemsStuff/ticcs1230/simplelink_cc32xx_sdk_7_10_00_13/source\ti/devices/cc32xx/driverlib/gcc/Release/driverlib.a(pin.obj)
 .text.PinHysteresisSet
                0x00000000       0x38 D:/EmbeddecSystemsStuff/ticcs1230/simplelink_cc32xx_sdk_7_10_00_13/source\ti/devices/cc32xx/driverlib/gcc/Release/driverlib.a(pin.obj)
 .text.PinFromPadGet
                0x00000000       0x3c D:/EmbeddecSystemsStuff/ticcs1230/simplelink_cc32xx_sdk_7_10_00_13/source\ti/devices/cc32xx/driverlib/gcc/Release/driverlib.a(pin.obj)
 .text          0x00000000        0x0 D:/EmbeddecSystemsStuff/ticcs1230/simplelink_cc32xx_sdk_7_10_00_13/source\ti/devices/cc32xx/driverlib/gcc/Release/driverlib.a(prcm.obj)
 .data          0x00000000        0x0 D:/EmbeddecSystemsStuff/ticcs1230/simplelink_cc32xx_sdk_7_10_00_13/source\ti/devices/cc32xx/driverlib/gcc/Release/driverlib.a(prcm.obj)
 .bss           0x00000000        0x0 D:/EmbeddecSystemsStuff/ticcs1230/simplelink_cc32xx_sdk_7_10_00_13/source\ti/devices/cc32xx/driverlib/gcc/Release/driverlib.a(prcm.obj)
 .text.RTCUseSet
                0x00000000       0x30 D:/EmbeddecSystemsStuff/ticcs1230/simplelink_cc32xx_sdk_7_10_00_13/source\ti/devices/cc32xx/driverlib/gcc/Release/driverlib.a(prcm.obj)
 .text.IsRTCUsed
                0x00000000       0x30 D:/EmbeddecSystemsStuff/ticcs1230/simplelink_cc32xx_sdk_7_10_00_13/source\ti/devices/cc32xx/driverlib/gcc/Release/driverlib.a(prcm.obj)
 .text.RTCU16MSecRegRead
                0x00000000       0x28 D:/EmbeddecSystemsStuff/ticcs1230/simplelink_cc32xx_sdk_7_10_00_13/source\ti/devices/cc32xx/driverlib/gcc/Release/driverlib.a(prcm.obj)
 .text.RTCU16MSecRegWrite
                0x00000000       0x40 D:/EmbeddecSystemsStuff/ticcs1230/simplelink_cc32xx_sdk_7_10_00_13/source\ti/devices/cc32xx/driverlib/gcc/Release/driverlib.a(prcm.obj)
 .text.RTCU32SecRegRead
                0x00000000       0x14 D:/EmbeddecSystemsStuff/ticcs1230/simplelink_cc32xx_sdk_7_10_00_13/source\ti/devices/cc32xx/driverlib/gcc/Release/driverlib.a(prcm.obj)
 .text.RTCU32SecRegWrite
                0x00000000       0x1c D:/EmbeddecSystemsStuff/ticcs1230/simplelink_cc32xx_sdk_7_10_00_13/source\ti/devices/cc32xx/driverlib/gcc/Release/driverlib.a(prcm.obj)
 .text.PRCMMCUReset
                0x00000000       0x28 D:/EmbeddecSystemsStuff/ticcs1230/simplelink_cc32xx_sdk_7_10_00_13/source\ti/devices/cc32xx/driverlib/gcc/Release/driverlib.a(prcm.obj)
 .text.PRCMPeripheralClockGet
                0x00000000       0xbc D:/EmbeddecSystemsStuff/ticcs1230/simplelink_cc32xx_sdk_7_10_00_13/source\ti/devices/cc32xx/driverlib/gcc/Release/driverlib.a(prcm.obj)
 .text.PRCMI2SClockFreqSet
                0x00000000       0x60 D:/EmbeddecSystemsStuff/ticcs1230/simplelink_cc32xx_sdk_7_10_00_13/source\ti/devices/cc32xx/driverlib/gcc/Release/driverlib.a(prcm.obj)
 .text.PRCMSRAMRetentionDisable
                0x00000000       0x34 D:/EmbeddecSystemsStuff/ticcs1230/simplelink_cc32xx_sdk_7_10_00_13/source\ti/devices/cc32xx/driverlib/gcc/Release/driverlib.a(prcm.obj)
 .text.PRCMHibernateWakeupCauseGet
                0x00000000       0x30 D:/EmbeddecSystemsStuff/ticcs1230/simplelink_cc32xx_sdk_7_10_00_13/source\ti/devices/cc32xx/driverlib/gcc/Release/driverlib.a(prcm.obj)
 .text.PRCMHibernateIntervalSet
                0x00000000       0xac D:/EmbeddecSystemsStuff/ticcs1230/simplelink_cc32xx_sdk_7_10_00_13/source\ti/devices/cc32xx/driverlib/gcc/Release/driverlib.a(prcm.obj)
 .text.PRCMHibernateEnter
                0x00000000       0x14 D:/EmbeddecSystemsStuff/ticcs1230/simplelink_cc32xx_sdk_7_10_00_13/source\ti/devices/cc32xx/driverlib/gcc/Release/driverlib.a(prcm.obj)
 .text.PRCMSlowClkCtrGet
                0x00000000       0x6c D:/EmbeddecSystemsStuff/ticcs1230/simplelink_cc32xx_sdk_7_10_00_13/source\ti/devices/cc32xx/driverlib/gcc/Release/driverlib.a(prcm.obj)
 .text.PRCMSlowClkCtrMatchSet
                0x00000000       0x40 D:/EmbeddecSystemsStuff/ticcs1230/simplelink_cc32xx_sdk_7_10_00_13/source\ti/devices/cc32xx/driverlib/gcc/Release/driverlib.a(prcm.obj)
 .text.PRCMSlowClkCtrMatchGet
                0x00000000       0x60 D:/EmbeddecSystemsStuff/ticcs1230/simplelink_cc32xx_sdk_7_10_00_13/source\ti/devices/cc32xx/driverlib/gcc/Release/driverlib.a(prcm.obj)
 .text.PRCMOCRRegisterWrite
                0x00000000       0x60 D:/EmbeddecSystemsStuff/ticcs1230/simplelink_cc32xx_sdk_7_10_00_13/source\ti/devices/cc32xx/driverlib/gcc/Release/driverlib.a(prcm.obj)
 .text.PRCMOCRRegisterRead
                0x00000000       0x44 D:/EmbeddecSystemsStuff/ticcs1230/simplelink_cc32xx_sdk_7_10_00_13/source\ti/devices/cc32xx/driverlib/gcc/Release/driverlib.a(prcm.obj)
 .text.PRCMIntRegister
                0x00000000       0x1e D:/EmbeddecSystemsStuff/ticcs1230/simplelink_cc32xx_sdk_7_10_00_13/source\ti/devices/cc32xx/driverlib/gcc/Release/driverlib.a(prcm.obj)
 .text.PRCMIntUnregister
                0x00000000       0x14 D:/EmbeddecSystemsStuff/ticcs1230/simplelink_cc32xx_sdk_7_10_00_13/source\ti/devices/cc32xx/driverlib/gcc/Release/driverlib.a(prcm.obj)
 .text.PRCMIntDisable
                0x00000000       0x48 D:/EmbeddecSystemsStuff/ticcs1230/simplelink_cc32xx_sdk_7_10_00_13/source\ti/devices/cc32xx/driverlib/gcc/Release/driverlib.a(prcm.obj)
 .text.PRCMIntStatus
                0x00000000       0x14 D:/EmbeddecSystemsStuff/ticcs1230/simplelink_cc32xx_sdk_7_10_00_13/source\ti/devices/cc32xx/driverlib/gcc/Release/driverlib.a(prcm.obj)
 .text.PRCMRTCInUseSet
                0x00000000        0xc D:/EmbeddecSystemsStuff/ticcs1230/simplelink_cc32xx_sdk_7_10_00_13/source\ti/devices/cc32xx/driverlib/gcc/Release/driverlib.a(prcm.obj)
 .text.PRCMRTCInUseGet
                0x00000000       0x18 D:/EmbeddecSystemsStuff/ticcs1230/simplelink_cc32xx_sdk_7_10_00_13/source\ti/devices/cc32xx/driverlib/gcc/Release/driverlib.a(prcm.obj)
 .text.PRCMRTCSet
                0x00000000       0xae D:/EmbeddecSystemsStuff/ticcs1230/simplelink_cc32xx_sdk_7_10_00_13/source\ti/devices/cc32xx/driverlib/gcc/Release/driverlib.a(prcm.obj)
 .text.PRCMRTCGet
                0x00000000       0xb8 D:/EmbeddecSystemsStuff/ticcs1230/simplelink_cc32xx_sdk_7_10_00_13/source\ti/devices/cc32xx/driverlib/gcc/Release/driverlib.a(prcm.obj)
 .text.PRCMRTCMatchSet
                0x00000000       0xf0 D:/EmbeddecSystemsStuff/ticcs1230/simplelink_cc32xx_sdk_7_10_00_13/source\ti/devices/cc32xx/driverlib/gcc/Release/driverlib.a(prcm.obj)
 .text.PRCMRTCMatchGet
                0x00000000       0xb4 D:/EmbeddecSystemsStuff/ticcs1230/simplelink_cc32xx_sdk_7_10_00_13/source\ti/devices/cc32xx/driverlib/gcc/Release/driverlib.a(prcm.obj)
 .text.PRCMCameraFreqSet
                0x00000000       0x50 D:/EmbeddecSystemsStuff/ticcs1230/simplelink_cc32xx_sdk_7_10_00_13/source\ti/devices/cc32xx/driverlib/gcc/Release/driverlib.a(prcm.obj)
 .text.PRCMIORetentionEnable
                0x00000000       0xd4 D:/EmbeddecSystemsStuff/ticcs1230/simplelink_cc32xx_sdk_7_10_00_13/source\ti/devices/cc32xx/driverlib/gcc/Release/driverlib.a(prcm.obj)
 .text.PRCMIORetentionDisable
                0x00000000       0xd4 D:/EmbeddecSystemsStuff/ticcs1230/simplelink_cc32xx_sdk_7_10_00_13/source\ti/devices/cc32xx/driverlib/gcc/Release/driverlib.a(prcm.obj)
 .text.PRCMDeviceTypeGet
                0x00000000      0x124 D:/EmbeddecSystemsStuff/ticcs1230/simplelink_cc32xx_sdk_7_10_00_13/source\ti/devices/cc32xx/driverlib/gcc/Release/driverlib.a(prcm.obj)
 .text.PRCMHibernateCycleTrigger
                0x00000000       0xc8 D:/EmbeddecSystemsStuff/ticcs1230/simplelink_cc32xx_sdk_7_10_00_13/source\ti/devices/cc32xx/driverlib/gcc/Release/driverlib.a(prcm.obj)
 .text          0x00000000        0x0 D:/EmbeddecSystemsStuff/ticcs1230/simplelink_cc32xx_sdk_7_10_00_13/source\ti/devices/cc32xx/driverlib/gcc/Release/driverlib.a(spi.obj)
 .data          0x00000000        0x0 D:/EmbeddecSystemsStuff/ticcs1230/simplelink_cc32xx_sdk_7_10_00_13/source\ti/devices/cc32xx/driverlib/gcc/Release/driverlib.a(spi.obj)
 .bss           0x00000000        0x0 D:/EmbeddecSystemsStuff/ticcs1230/simplelink_cc32xx_sdk_7_10_00_13/source\ti/devices/cc32xx/driverlib/gcc/Release/driverlib.a(spi.obj)
 .rodata.g_ppulSPIIntMap
                0x00000000       0x24 D:/EmbeddecSystemsStuff/ticcs1230/simplelink_cc32xx_sdk_7_10_00_13/source\ti/devices/cc32xx/driverlib/gcc/Release/driverlib.a(spi.obj)
 .rodata.g_ulSPIDmaMaskMap
                0x00000000       0x18 D:/EmbeddecSystemsStuff/ticcs1230/simplelink_cc32xx_sdk_7_10_00_13/source\ti/devices/cc32xx/driverlib/gcc/Release/driverlib.a(spi.obj)
 .text.SPITransfer8
                0x00000000       0xe8 D:/EmbeddecSystemsStuff/ticcs1230/simplelink_cc32xx_sdk_7_10_00_13/source\ti/devices/cc32xx/driverlib/gcc/Release/driverlib.a(spi.obj)
 .text.SPITransfer16
                0x00000000      0x102 D:/EmbeddecSystemsStuff/ticcs1230/simplelink_cc32xx_sdk_7_10_00_13/source\ti/devices/cc32xx/driverlib/gcc/Release/driverlib.a(spi.obj)
 .text.SPITransfer32
                0x00000000      0x100 D:/EmbeddecSystemsStuff/ticcs1230/simplelink_cc32xx_sdk_7_10_00_13/source\ti/devices/cc32xx/driverlib/gcc/Release/driverlib.a(spi.obj)
 .text.SPIIntNumberGet
                0x00000000       0x58 D:/EmbeddecSystemsStuff/ticcs1230/simplelink_cc32xx_sdk_7_10_00_13/source\ti/devices/cc32xx/driverlib/gcc/Release/driverlib.a(spi.obj)
 .text.SPIDmaMaskGet
                0x00000000       0x48 D:/EmbeddecSystemsStuff/ticcs1230/simplelink_cc32xx_sdk_7_10_00_13/source\ti/devices/cc32xx/driverlib/gcc/Release/driverlib.a(spi.obj)
 .text.SPIEnable
                0x00000000       0x26 D:/EmbeddecSystemsStuff/ticcs1230/simplelink_cc32xx_sdk_7_10_00_13/source\ti/devices/cc32xx/driverlib/gcc/Release/driverlib.a(spi.obj)
 .text.SPIDisable
                0x00000000       0x26 D:/EmbeddecSystemsStuff/ticcs1230/simplelink_cc32xx_sdk_7_10_00_13/source\ti/devices/cc32xx/driverlib/gcc/Release/driverlib.a(spi.obj)
 .text.SPIDmaEnable
                0x00000000       0x2a D:/EmbeddecSystemsStuff/ticcs1230/simplelink_cc32xx_sdk_7_10_00_13/source\ti/devices/cc32xx/driverlib/gcc/Release/driverlib.a(spi.obj)
 .text.SPIDmaDisable
                0x00000000       0x2a D:/EmbeddecSystemsStuff/ticcs1230/simplelink_cc32xx_sdk_7_10_00_13/source\ti/devices/cc32xx/driverlib/gcc/Release/driverlib.a(spi.obj)
 .text.SPIReset
                0x00000000       0x3a D:/EmbeddecSystemsStuff/ticcs1230/simplelink_cc32xx_sdk_7_10_00_13/source\ti/devices/cc32xx/driverlib/gcc/Release/driverlib.a(spi.obj)
 .text.SPIConfigSetExpClk
                0x00000000       0xb8 D:/EmbeddecSystemsStuff/ticcs1230/simplelink_cc32xx_sdk_7_10_00_13/source\ti/devices/cc32xx/driverlib/gcc/Release/driverlib.a(spi.obj)
 .text.SPIDataGetNonBlocking
                0x00000000       0x3a D:/EmbeddecSystemsStuff/ticcs1230/simplelink_cc32xx_sdk_7_10_00_13/source\ti/devices/cc32xx/driverlib/gcc/Release/driverlib.a(spi.obj)
 .text.SPIDataGet
                0x00000000       0x32 D:/EmbeddecSystemsStuff/ticcs1230/simplelink_cc32xx_sdk_7_10_00_13/source\ti/devices/cc32xx/driverlib/gcc/Release/driverlib.a(spi.obj)
 .text.SPIDataPutNonBlocking
                0x00000000       0x3a D:/EmbeddecSystemsStuff/ticcs1230/simplelink_cc32xx_sdk_7_10_00_13/source\ti/devices/cc32xx/driverlib/gcc/Release/driverlib.a(spi.obj)
 .text.SPIDataPut
                0x00000000       0x32 D:/EmbeddecSystemsStuff/ticcs1230/simplelink_cc32xx_sdk_7_10_00_13/source\ti/devices/cc32xx/driverlib/gcc/Release/driverlib.a(spi.obj)
 .text.SPIFIFOEnable
                0x00000000       0x2a D:/EmbeddecSystemsStuff/ticcs1230/simplelink_cc32xx_sdk_7_10_00_13/source\ti/devices/cc32xx/driverlib/gcc/Release/driverlib.a(spi.obj)
 .text.SPIFIFODisable
                0x00000000       0x2a D:/EmbeddecSystemsStuff/ticcs1230/simplelink_cc32xx_sdk_7_10_00_13/source\ti/devices/cc32xx/driverlib/gcc/Release/driverlib.a(spi.obj)
 .text.SPIFIFOLevelSet
                0x00000000       0x42 D:/EmbeddecSystemsStuff/ticcs1230/simplelink_cc32xx_sdk_7_10_00_13/source\ti/devices/cc32xx/driverlib/gcc/Release/driverlib.a(spi.obj)
 .text.SPIFIFOLevelGet
                0x00000000       0x32 D:/EmbeddecSystemsStuff/ticcs1230/simplelink_cc32xx_sdk_7_10_00_13/source\ti/devices/cc32xx/driverlib/gcc/Release/driverlib.a(spi.obj)
 .text.SPIWordCountSet
                0x00000000       0x30 D:/EmbeddecSystemsStuff/ticcs1230/simplelink_cc32xx_sdk_7_10_00_13/source\ti/devices/cc32xx/driverlib/gcc/Release/driverlib.a(spi.obj)
 .text.SPIIntRegister
                0x00000000       0x2a D:/EmbeddecSystemsStuff/ticcs1230/simplelink_cc32xx_sdk_7_10_00_13/source\ti/devices/cc32xx/driverlib/gcc/Release/driverlib.a(spi.obj)
 .text.SPIIntUnregister
                0x00000000       0x26 D:/EmbeddecSystemsStuff/ticcs1230/simplelink_cc32xx_sdk_7_10_00_13/source\ti/devices/cc32xx/driverlib/gcc/Release/driverlib.a(spi.obj)
 .text.SPIIntEnable
                0x00000000       0x68 D:/EmbeddecSystemsStuff/ticcs1230/simplelink_cc32xx_sdk_7_10_00_13/source\ti/devices/cc32xx/driverlib/gcc/Release/driverlib.a(spi.obj)
 .text.SPIIntDisable
                0x00000000       0x6c D:/EmbeddecSystemsStuff/ticcs1230/simplelink_cc32xx_sdk_7_10_00_13/source\ti/devices/cc32xx/driverlib/gcc/Release/driverlib.a(spi.obj)
 .text.SPIIntStatus
                0x00000000       0x88 D:/EmbeddecSystemsStuff/ticcs1230/simplelink_cc32xx_sdk_7_10_00_13/source\ti/devices/cc32xx/driverlib/gcc/Release/driverlib.a(spi.obj)
 .text.SPIIntClear
                0x00000000       0x60 D:/EmbeddecSystemsStuff/ticcs1230/simplelink_cc32xx_sdk_7_10_00_13/source\ti/devices/cc32xx/driverlib/gcc/Release/driverlib.a(spi.obj)
 .text.SPICSEnable
                0x00000000       0x26 D:/EmbeddecSystemsStuff/ticcs1230/simplelink_cc32xx_sdk_7_10_00_13/source\ti/devices/cc32xx/driverlib/gcc/Release/driverlib.a(spi.obj)
 .text.SPICSDisable
                0x00000000       0x26 D:/EmbeddecSystemsStuff/ticcs1230/simplelink_cc32xx_sdk_7_10_00_13/source\ti/devices/cc32xx/driverlib/gcc/Release/driverlib.a(spi.obj)
 .text.SPITransfer
                0x00000000       0x8e D:/EmbeddecSystemsStuff/ticcs1230/simplelink_cc32xx_sdk_7_10_00_13/source\ti/devices/cc32xx/driverlib/gcc/Release/driverlib.a(spi.obj)
 .debug_info    0x00000000      0xa4b D:/EmbeddecSystemsStuff/ticcs1230/simplelink_cc32xx_sdk_7_10_00_13/source\ti/devices/cc32xx/driverlib/gcc/Release/driverlib.a(spi.obj)
 .debug_abbrev  0x00000000      0x161 D:/EmbeddecSystemsStuff/ticcs1230/simplelink_cc32xx_sdk_7_10_00_13/source\ti/devices/cc32xx/driverlib/gcc/Release/driverlib.a(spi.obj)
 .debug_aranges
                0x00000000      0x100 D:/EmbeddecSystemsStuff/ticcs1230/simplelink_cc32xx_sdk_7_10_00_13/source\ti/devices/cc32xx/driverlib/gcc/Release/driverlib.a(spi.obj)
 .debug_ranges  0x00000000       0xf0 D:/EmbeddecSystemsStuff/ticcs1230/simplelink_cc32xx_sdk_7_10_00_13/source\ti/devices/cc32xx/driverlib/gcc/Release/driverlib.a(spi.obj)
 .debug_line    0x00000000      0x759 D:/EmbeddecSystemsStuff/ticcs1230/simplelink_cc32xx_sdk_7_10_00_13/source\ti/devices/cc32xx/driverlib/gcc/Release/driverlib.a(spi.obj)
 .debug_str     0x00000000      0x4d2 D:/EmbeddecSystemsStuff/ticcs1230/simplelink_cc32xx_sdk_7_10_00_13/source\ti/devices/cc32xx/driverlib/gcc/Release/driverlib.a(spi.obj)
 .comment       0x00000000       0x7a D:/EmbeddecSystemsStuff/ticcs1230/simplelink_cc32xx_sdk_7_10_00_13/source\ti/devices/cc32xx/driverlib/gcc/Release/driverlib.a(spi.obj)
 .debug_frame   0x00000000      0x480 D:/EmbeddecSystemsStuff/ticcs1230/simplelink_cc32xx_sdk_7_10_00_13/source\ti/devices/cc32xx/driverlib/gcc/Release/driverlib.a(spi.obj)
 .ARM.attributes
                0x00000000       0x2e D:/EmbeddecSystemsStuff/ticcs1230/simplelink_cc32xx_sdk_7_10_00_13/source\ti/devices/cc32xx/driverlib/gcc/Release/driverlib.a(spi.obj)
 .text          0x00000000        0x0 D:/EmbeddecSystemsStuff/ticcs1230/simplelink_cc32xx_sdk_7_10_00_13/source\ti/devices/cc32xx/driverlib/gcc/Release/driverlib.a(systick.obj)
 .data          0x00000000        0x0 D:/EmbeddecSystemsStuff/ticcs1230/simplelink_cc32xx_sdk_7_10_00_13/source\ti/devices/cc32xx/driverlib/gcc/Release/driverlib.a(systick.obj)
 .bss           0x00000000        0x0 D:/EmbeddecSystemsStuff/ticcs1230/simplelink_cc32xx_sdk_7_10_00_13/source\ti/devices/cc32xx/driverlib/gcc/Release/driverlib.a(systick.obj)
 .text.SysTickDisable
                0x00000000       0x1c D:/EmbeddecSystemsStuff/ticcs1230/simplelink_cc32xx_sdk_7_10_00_13/source\ti/devices/cc32xx/driverlib/gcc/Release/driverlib.a(systick.obj)
 .text.SysTickIntRegister
                0x00000000       0x28 D:/EmbeddecSystemsStuff/ticcs1230/simplelink_cc32xx_sdk_7_10_00_13/source\ti/devices/cc32xx/driverlib/gcc/Release/driverlib.a(systick.obj)
 .text.SysTickIntUnregister
                0x00000000       0x20 D:/EmbeddecSystemsStuff/ticcs1230/simplelink_cc32xx_sdk_7_10_00_13/source\ti/devices/cc32xx/driverlib/gcc/Release/driverlib.a(systick.obj)
 .text.SysTickPeriodGet
                0x00000000       0x18 D:/EmbeddecSystemsStuff/ticcs1230/simplelink_cc32xx_sdk_7_10_00_13/source\ti/devices/cc32xx/driverlib/gcc/Release/driverlib.a(systick.obj)
 .text.SysTickValueGet
                0x00000000       0x14 D:/EmbeddecSystemsStuff/ticcs1230/simplelink_cc32xx_sdk_7_10_00_13/source\ti/devices/cc32xx/driverlib/gcc/Release/driverlib.a(systick.obj)
 .text          0x00000000        0x0 D:/EmbeddecSystemsStuff/ticcs1230/simplelink_cc32xx_sdk_7_10_00_13/source\ti/devices/cc32xx/driverlib/gcc/Release/driverlib.a(timer.obj)
 .data          0x00000000        0x0 D:/EmbeddecSystemsStuff/ticcs1230/simplelink_cc32xx_sdk_7_10_00_13/source\ti/devices/cc32xx/driverlib/gcc/Release/driverlib.a(timer.obj)
 .bss           0x00000000        0x0 D:/EmbeddecSystemsStuff/ticcs1230/simplelink_cc32xx_sdk_7_10_00_13/source\ti/devices/cc32xx/driverlib/gcc/Release/driverlib.a(timer.obj)
 .text.TimerConfigure
                0x00000000       0x54 D:/EmbeddecSystemsStuff/ticcs1230/simplelink_cc32xx_sdk_7_10_00_13/source\ti/devices/cc32xx/driverlib/gcc/Release/driverlib.a(timer.obj)
 .text.TimerControlLevel
                0x00000000       0x46 D:/EmbeddecSystemsStuff/ticcs1230/simplelink_cc32xx_sdk_7_10_00_13/source\ti/devices/cc32xx/driverlib/gcc/Release/driverlib.a(timer.obj)
 .text.TimerControlEvent
                0x00000000       0x3e D:/EmbeddecSystemsStuff/ticcs1230/simplelink_cc32xx_sdk_7_10_00_13/source\ti/devices/cc32xx/driverlib/gcc/Release/driverlib.a(timer.obj)
 .text.TimerPrescaleGet
                0x00000000       0x28 D:/EmbeddecSystemsStuff/ticcs1230/simplelink_cc32xx_sdk_7_10_00_13/source\ti/devices/cc32xx/driverlib/gcc/Release/driverlib.a(timer.obj)
 .text.TimerPrescaleMatchSet
                0x00000000       0x3c D:/EmbeddecSystemsStuff/ticcs1230/simplelink_cc32xx_sdk_7_10_00_13/source\ti/devices/cc32xx/driverlib/gcc/Release/driverlib.a(timer.obj)
 .text.TimerPrescaleMatchGet
                0x00000000       0x28 D:/EmbeddecSystemsStuff/ticcs1230/simplelink_cc32xx_sdk_7_10_00_13/source\ti/devices/cc32xx/driverlib/gcc/Release/driverlib.a(timer.obj)
 .text.TimerLoadGet
                0x00000000       0x28 D:/EmbeddecSystemsStuff/ticcs1230/simplelink_cc32xx_sdk_7_10_00_13/source\ti/devices/cc32xx/driverlib/gcc/Release/driverlib.a(timer.obj)
 .text.TimerValueGet
                0x00000000       0x28 D:/EmbeddecSystemsStuff/ticcs1230/simplelink_cc32xx_sdk_7_10_00_13/source\ti/devices/cc32xx/driverlib/gcc/Release/driverlib.a(timer.obj)
 .text.TimerValueSet
                0x00000000       0x32 D:/EmbeddecSystemsStuff/ticcs1230/simplelink_cc32xx_sdk_7_10_00_13/source\ti/devices/cc32xx/driverlib/gcc/Release/driverlib.a(timer.obj)
 .text.TimerMatchSet
                0x00000000       0x3c D:/EmbeddecSystemsStuff/ticcs1230/simplelink_cc32xx_sdk_7_10_00_13/source\ti/devices/cc32xx/driverlib/gcc/Release/driverlib.a(timer.obj)
 .text.TimerMatchGet
                0x00000000       0x28 D:/EmbeddecSystemsStuff/ticcs1230/simplelink_cc32xx_sdk_7_10_00_13/source\ti/devices/cc32xx/driverlib/gcc/Release/driverlib.a(timer.obj)
 .text.TimerIntRegister
                0x00000000       0x80 D:/EmbeddecSystemsStuff/ticcs1230/simplelink_cc32xx_sdk_7_10_00_13/source\ti/devices/cc32xx/driverlib/gcc/Release/driverlib.a(timer.obj)
 .text.TimerIntUnregister
                0x00000000       0x78 D:/EmbeddecSystemsStuff/ticcs1230/simplelink_cc32xx_sdk_7_10_00_13/source\ti/devices/cc32xx/driverlib/gcc/Release/driverlib.a(timer.obj)
 .text.TimerIntStatus
                0x00000000       0x2a D:/EmbeddecSystemsStuff/ticcs1230/simplelink_cc32xx_sdk_7_10_00_13/source\ti/devices/cc32xx/driverlib/gcc/Release/driverlib.a(timer.obj)
 .text.TimerDMAEventSet
                0x00000000       0x1e D:/EmbeddecSystemsStuff/ticcs1230/simplelink_cc32xx_sdk_7_10_00_13/source\ti/devices/cc32xx/driverlib/gcc/Release/driverlib.a(timer.obj)
 .text.TimerDMAEventGet
                0x00000000       0x18 D:/EmbeddecSystemsStuff/ticcs1230/simplelink_cc32xx_sdk_7_10_00_13/source\ti/devices/cc32xx/driverlib/gcc/Release/driverlib.a(timer.obj)
 .text          0x00000000        0x0 D:/EmbeddecSystemsStuff/ticcs1230/simplelink_cc32xx_sdk_7_10_00_13/source\ti/devices/cc32xx/driverlib/gcc/Release/driverlib.a(uart.obj)
 .data          0x00000000        0x0 D:/EmbeddecSystemsStuff/ticcs1230/simplelink_cc32xx_sdk_7_10_00_13/source\ti/devices/cc32xx/driverlib/gcc/Release/driverlib.a(uart.obj)
 .bss           0x00000000        0x0 D:/EmbeddecSystemsStuff/ticcs1230/simplelink_cc32xx_sdk_7_10_00_13/source\ti/devices/cc32xx/driverlib/gcc/Release/driverlib.a(uart.obj)
 .rodata.g_ppulUARTIntMap
                0x00000000       0x10 D:/EmbeddecSystemsStuff/ticcs1230/simplelink_cc32xx_sdk_7_10_00_13/source\ti/devices/cc32xx/driverlib/gcc/Release/driverlib.a(uart.obj)
 .text.UARTIntNumberGet
                0x00000000       0x48 D:/EmbeddecSystemsStuff/ticcs1230/simplelink_cc32xx_sdk_7_10_00_13/source\ti/devices/cc32xx/driverlib/gcc/Release/driverlib.a(uart.obj)
 .text.UARTParityModeSet
                0x00000000       0x2a D:/EmbeddecSystemsStuff/ticcs1230/simplelink_cc32xx_sdk_7_10_00_13/source\ti/devices/cc32xx/driverlib/gcc/Release/driverlib.a(uart.obj)
 .text.UARTParityModeGet
                0x00000000       0x1c D:/EmbeddecSystemsStuff/ticcs1230/simplelink_cc32xx_sdk_7_10_00_13/source\ti/devices/cc32xx/driverlib/gcc/Release/driverlib.a(uart.obj)
 .text.UARTFIFOLevelGet
                0x00000000       0x32 D:/EmbeddecSystemsStuff/ticcs1230/simplelink_cc32xx_sdk_7_10_00_13/source\ti/devices/cc32xx/driverlib/gcc/Release/driverlib.a(uart.obj)
 .text.UARTConfigGetExpClk
                0x00000000       0x62 D:/EmbeddecSystemsStuff/ticcs1230/simplelink_cc32xx_sdk_7_10_00_13/source\ti/devices/cc32xx/driverlib/gcc/Release/driverlib.a(uart.obj)
 .text.UARTFIFOEnable
                0x00000000       0x22 D:/EmbeddecSystemsStuff/ticcs1230/simplelink_cc32xx_sdk_7_10_00_13/source\ti/devices/cc32xx/driverlib/gcc/Release/driverlib.a(uart.obj)
 .text.UARTFIFODisable
                0x00000000       0x22 D:/EmbeddecSystemsStuff/ticcs1230/simplelink_cc32xx_sdk_7_10_00_13/source\ti/devices/cc32xx/driverlib/gcc/Release/driverlib.a(uart.obj)
 .text.UARTModemControlSet
                0x00000000       0x32 D:/EmbeddecSystemsStuff/ticcs1230/simplelink_cc32xx_sdk_7_10_00_13/source\ti/devices/cc32xx/driverlib/gcc/Release/driverlib.a(uart.obj)
 .text.UARTModemControlClear
                0x00000000       0x34 D:/EmbeddecSystemsStuff/ticcs1230/simplelink_cc32xx_sdk_7_10_00_13/source\ti/devices/cc32xx/driverlib/gcc/Release/driverlib.a(uart.obj)
 .text.UARTModemControlGet
                0x00000000       0x1c D:/EmbeddecSystemsStuff/ticcs1230/simplelink_cc32xx_sdk_7_10_00_13/source\ti/devices/cc32xx/driverlib/gcc/Release/driverlib.a(uart.obj)
 .text.UARTModemStatusGet
                0x00000000       0x1c D:/EmbeddecSystemsStuff/ticcs1230/simplelink_cc32xx_sdk_7_10_00_13/source\ti/devices/cc32xx/driverlib/gcc/Release/driverlib.a(uart.obj)
 .text.UARTFlowControlGet
                0x00000000       0x1c D:/EmbeddecSystemsStuff/ticcs1230/simplelink_cc32xx_sdk_7_10_00_13/source\ti/devices/cc32xx/driverlib/gcc/Release/driverlib.a(uart.obj)
 .text.UARTTxIntModeSet
                0x00000000       0x2a D:/EmbeddecSystemsStuff/ticcs1230/simplelink_cc32xx_sdk_7_10_00_13/source\ti/devices/cc32xx/driverlib/gcc/Release/driverlib.a(uart.obj)
 .text.UARTTxIntModeGet
                0x00000000       0x1c D:/EmbeddecSystemsStuff/ticcs1230/simplelink_cc32xx_sdk_7_10_00_13/source\ti/devices/cc32xx/driverlib/gcc/Release/driverlib.a(uart.obj)
 .text.UARTSpaceAvail
                0x00000000       0x26 D:/EmbeddecSystemsStuff/ticcs1230/simplelink_cc32xx_sdk_7_10_00_13/source\ti/devices/cc32xx/driverlib/gcc/Release/driverlib.a(uart.obj)
 .text.UARTCharGetNonBlocking
                0x00000000       0x2a D:/EmbeddecSystemsStuff/ticcs1230/simplelink_cc32xx_sdk_7_10_00_13/source\ti/devices/cc32xx/driverlib/gcc/Release/driverlib.a(uart.obj)
 .text.UARTCharGet
                0x00000000       0x26 D:/EmbeddecSystemsStuff/ticcs1230/simplelink_cc32xx_sdk_7_10_00_13/source\ti/devices/cc32xx/driverlib/gcc/Release/driverlib.a(uart.obj)
 .text.UARTCharPut
                0x00000000       0x2c D:/EmbeddecSystemsStuff/ticcs1230/simplelink_cc32xx_sdk_7_10_00_13/source\ti/devices/cc32xx/driverlib/gcc/Release/driverlib.a(uart.obj)
 .text.UARTBreakCtl
                0x00000000       0x38 D:/EmbeddecSystemsStuff/ticcs1230/simplelink_cc32xx_sdk_7_10_00_13/source\ti/devices/cc32xx/driverlib/gcc/Release/driverlib.a(uart.obj)
 .text.UARTIntRegister
                0x00000000       0x2a D:/EmbeddecSystemsStuff/ticcs1230/simplelink_cc32xx_sdk_7_10_00_13/source\ti/devices/cc32xx/driverlib/gcc/Release/driverlib.a(uart.obj)
 .text.UARTIntUnregister
                0x00000000       0x26 D:/EmbeddecSystemsStuff/ticcs1230/simplelink_cc32xx_sdk_7_10_00_13/source\ti/devices/cc32xx/driverlib/gcc/Release/driverlib.a(uart.obj)
 .text.UARTRxErrorClear
                0x00000000       0x1c D:/EmbeddecSystemsStuff/ticcs1230/simplelink_cc32xx_sdk_7_10_00_13/source\ti/devices/cc32xx/driverlib/gcc/Release/driverlib.a(uart.obj)
 .text          0x00000000        0x0 D:/EmbeddecSystemsStuff/ticcs1230/simplelink_cc32xx_sdk_7_10_00_13/source\ti/devices/cc32xx/driverlib/gcc/Release/driverlib.a(udma.obj)
 .data          0x00000000        0x0 D:/EmbeddecSystemsStuff/ticcs1230/simplelink_cc32xx_sdk_7_10_00_13/source\ti/devices/cc32xx/driverlib/gcc/Release/driverlib.a(udma.obj)
 .bss           0x00000000        0x0 D:/EmbeddecSystemsStuff/ticcs1230/simplelink_cc32xx_sdk_7_10_00_13/source\ti/devices/cc32xx/driverlib/gcc/Release/driverlib.a(udma.obj)
 .text.uDMADisable
                0x00000000       0x18 D:/EmbeddecSystemsStuff/ticcs1230/simplelink_cc32xx_sdk_7_10_00_13/source\ti/devices/cc32xx/driverlib/gcc/Release/driverlib.a(udma.obj)
 .text.uDMAControlBaseGet
                0x00000000       0x14 D:/EmbeddecSystemsStuff/ticcs1230/simplelink_cc32xx_sdk_7_10_00_13/source\ti/devices/cc32xx/driverlib/gcc/Release/driverlib.a(udma.obj)
 .text.uDMAControlAlternateBaseGet
                0x00000000       0x14 D:/EmbeddecSystemsStuff/ticcs1230/simplelink_cc32xx_sdk_7_10_00_13/source\ti/devices/cc32xx/driverlib/gcc/Release/driverlib.a(udma.obj)
 .text.uDMAChannelRequest
                0x00000000       0x24 D:/EmbeddecSystemsStuff/ticcs1230/simplelink_cc32xx_sdk_7_10_00_13/source\ti/devices/cc32xx/driverlib/gcc/Release/driverlib.a(udma.obj)
 .text.uDMAChannelAttributeEnable
                0x00000000       0x7c D:/EmbeddecSystemsStuff/ticcs1230/simplelink_cc32xx_sdk_7_10_00_13/source\ti/devices/cc32xx/driverlib/gcc/Release/driverlib.a(udma.obj)
 .text.uDMAChannelAttributeGet
                0x00000000       0x98 D:/EmbeddecSystemsStuff/ticcs1230/simplelink_cc32xx_sdk_7_10_00_13/source\ti/devices/cc32xx/driverlib/gcc/Release/driverlib.a(udma.obj)
 .text.uDMAChannelScatterGatherSet
                0x00000000       0x88 D:/EmbeddecSystemsStuff/ticcs1230/simplelink_cc32xx_sdk_7_10_00_13/source\ti/devices/cc32xx/driverlib/gcc/Release/driverlib.a(udma.obj)
 .text.uDMAChannelModeGet
                0x00000000       0x54 D:/EmbeddecSystemsStuff/ticcs1230/simplelink_cc32xx_sdk_7_10_00_13/source\ti/devices/cc32xx/driverlib/gcc/Release/driverlib.a(udma.obj)
 .text.uDMAIntRegister
                0x00000000       0x20 D:/EmbeddecSystemsStuff/ticcs1230/simplelink_cc32xx_sdk_7_10_00_13/source\ti/devices/cc32xx/driverlib/gcc/Release/driverlib.a(udma.obj)
 .text.uDMAIntUnregister
                0x00000000       0x1c D:/EmbeddecSystemsStuff/ticcs1230/simplelink_cc32xx_sdk_7_10_00_13/source\ti/devices/cc32xx/driverlib/gcc/Release/driverlib.a(udma.obj)
 .text.uDMAIntStatus
                0x00000000       0x14 D:/EmbeddecSystemsStuff/ticcs1230/simplelink_cc32xx_sdk_7_10_00_13/source\ti/devices/cc32xx/driverlib/gcc/Release/driverlib.a(udma.obj)
 .text          0x00000000        0x0 D:/EmbeddecSystemsStuff/ticcs1230/simplelink_cc32xx_sdk_7_10_00_13/source\ti/devices/cc32xx/driverlib/gcc/Release/driverlib.a(utils.obj)
 .data          0x00000000        0x0 D:/EmbeddecSystemsStuff/ticcs1230/simplelink_cc32xx_sdk_7_10_00_13/source\ti/devices/cc32xx/driverlib/gcc/Release/driverlib.a(utils.obj)
 .bss           0x00000000        0x0 D:/EmbeddecSystemsStuff/ticcs1230/simplelink_cc32xx_sdk_7_10_00_13/source\ti/devices/cc32xx/driverlib/gcc/Release/driverlib.a(utils.obj)
 .text          0x00000000        0x0 D:/EmbeddecSystemsStuff/ticcs1230/simplelink_cc32xx_sdk_7_10_00_13/source\ti/devices/cc32xx/driverlib/gcc/Release/driverlib.a(flash.obj)
 .data          0x00000000        0x0 D:/EmbeddecSystemsStuff/ticcs1230/simplelink_cc32xx_sdk_7_10_00_13/source\ti/devices/cc32xx/driverlib/gcc/Release/driverlib.a(flash.obj)
 .bss           0x00000000        0x0 D:/EmbeddecSystemsStuff/ticcs1230/simplelink_cc32xx_sdk_7_10_00_13/source\ti/devices/cc32xx/driverlib/gcc/Release/driverlib.a(flash.obj)
 .rodata.g_pulFMPPERegs
                0x00000000       0x40 D:/EmbeddecSystemsStuff/ticcs1230/simplelink_cc32xx_sdk_7_10_00_13/source\ti/devices/cc32xx/driverlib/gcc/Release/driverlib.a(flash.obj)
 .rodata.g_pulFMPRERegs
                0x00000000       0x40 D:/EmbeddecSystemsStuff/ticcs1230/simplelink_cc32xx_sdk_7_10_00_13/source\ti/devices/cc32xx/driverlib/gcc/Release/driverlib.a(flash.obj)
 .text.FlashErase
                0x00000000       0x60 D:/EmbeddecSystemsStuff/ticcs1230/simplelink_cc32xx_sdk_7_10_00_13/source\ti/devices/cc32xx/driverlib/gcc/Release/driverlib.a(flash.obj)
 .text.FlashEraseNonBlocking
                0x00000000       0x38 D:/EmbeddecSystemsStuff/ticcs1230/simplelink_cc32xx_sdk_7_10_00_13/source\ti/devices/cc32xx/driverlib/gcc/Release/driverlib.a(flash.obj)
 .text.FlashMassErase
                0x00000000       0x50 D:/EmbeddecSystemsStuff/ticcs1230/simplelink_cc32xx_sdk_7_10_00_13/source\ti/devices/cc32xx/driverlib/gcc/Release/driverlib.a(flash.obj)
 .text.FlashMassEraseNonBlocking
                0x00000000       0x28 D:/EmbeddecSystemsStuff/ticcs1230/simplelink_cc32xx_sdk_7_10_00_13/source\ti/devices/cc32xx/driverlib/gcc/Release/driverlib.a(flash.obj)
 .text.FlashProgram
                0x00000000       0xb4 D:/EmbeddecSystemsStuff/ticcs1230/simplelink_cc32xx_sdk_7_10_00_13/source\ti/devices/cc32xx/driverlib/gcc/Release/driverlib.a(flash.obj)
 .text.FlashProgramNonBlocking
                0x00000000       0xa4 D:/EmbeddecSystemsStuff/ticcs1230/simplelink_cc32xx_sdk_7_10_00_13/source\ti/devices/cc32xx/driverlib/gcc/Release/driverlib.a(flash.obj)
 .text.FlashProtectGet
                0x00000000       0x78 D:/EmbeddecSystemsStuff/ticcs1230/simplelink_cc32xx_sdk_7_10_00_13/source\ti/devices/cc32xx/driverlib/gcc/Release/driverlib.a(flash.obj)
 .text.FlashIntRegister
                0x00000000       0x1e D:/EmbeddecSystemsStuff/ticcs1230/simplelink_cc32xx_sdk_7_10_00_13/source\ti/devices/cc32xx/driverlib/gcc/Release/driverlib.a(flash.obj)
 .text.FlashIntUnregister
                0x00000000       0x14 D:/EmbeddecSystemsStuff/ticcs1230/simplelink_cc32xx_sdk_7_10_00_13/source\ti/devices/cc32xx/driverlib/gcc/Release/driverlib.a(flash.obj)
 .text.FlashIntEnable
                0x00000000       0x24 D:/EmbeddecSystemsStuff/ticcs1230/simplelink_cc32xx_sdk_7_10_00_13/source\ti/devices/cc32xx/driverlib/gcc/Release/driverlib.a(flash.obj)
 .text.FlashIntDisable
                0x00000000       0x24 D:/EmbeddecSystemsStuff/ticcs1230/simplelink_cc32xx_sdk_7_10_00_13/source\ti/devices/cc32xx/driverlib/gcc/Release/driverlib.a(flash.obj)
 .text.FlashIntStatus
                0x00000000       0x2c D:/EmbeddecSystemsStuff/ticcs1230/simplelink_cc32xx_sdk_7_10_00_13/source\ti/devices/cc32xx/driverlib/gcc/Release/driverlib.a(flash.obj)
 .text.FlashIntClear
                0x00000000       0x1c D:/EmbeddecSystemsStuff/ticcs1230/simplelink_cc32xx_sdk_7_10_00_13/source\ti/devices/cc32xx/driverlib/gcc/Release/driverlib.a(flash.obj)
 .data          0x00000000        0x0 d:/embeddecsystemsstuff/ticcs1230/ccs/tools/compiler/gcc-arm-none-eabi-9-2019-q4-major/bin/../lib/gcc/arm-none-eabi/9.2.1/thumb/v7e-m/nofp\libgcc.a(_arm_muldf3.o)
 .bss           0x00000000        0x0 d:/embeddecsystemsstuff/ticcs1230/ccs/tools/compiler/gcc-arm-none-eabi-9-2019-q4-major/bin/../lib/gcc/arm-none-eabi/9.2.1/thumb/v7e-m/nofp\libgcc.a(_arm_muldf3.o)
 .data          0x00000000        0x0 d:/embeddecsystemsstuff/ticcs1230/ccs/tools/compiler/gcc-arm-none-eabi-9-2019-q4-major/bin/../lib/gcc/arm-none-eabi/9.2.1/thumb/v7e-m/nofp\libgcc.a(_arm_addsubdf3.o)
 .bss           0x00000000        0x0 d:/embeddecsystemsstuff/ticcs1230/ccs/tools/compiler/gcc-arm-none-eabi-9-2019-q4-major/bin/../lib/gcc/arm-none-eabi/9.2.1/thumb/v7e-m/nofp\libgcc.a(_arm_addsubdf3.o)
 .data          0x00000000        0x0 d:/embeddecsystemsstuff/ticcs1230/ccs/tools/compiler/gcc-arm-none-eabi-9-2019-q4-major/bin/../lib/gcc/arm-none-eabi/9.2.1/thumb/v7e-m/nofp\libgcc.a(_arm_fixdfsi.o)
 .bss           0x00000000        0x0 d:/embeddecsystemsstuff/ticcs1230/ccs/tools/compiler/gcc-arm-none-eabi-9-2019-q4-major/bin/../lib/gcc/arm-none-eabi/9.2.1/thumb/v7e-m/nofp\libgcc.a(_arm_fixdfsi.o)
 .data          0x00000000        0x0 d:/embeddecsystemsstuff/ticcs1230/ccs/tools/compiler/gcc-arm-none-eabi-9-2019-q4-major/bin/../lib/gcc/arm-none-eabi/9.2.1/thumb/v7e-m/nofp\libgcc.a(_arm_fixunsdfsi.o)
 .bss           0x00000000        0x0 d:/embeddecsystemsstuff/ticcs1230/ccs/tools/compiler/gcc-arm-none-eabi-9-2019-q4-major/bin/../lib/gcc/arm-none-eabi/9.2.1/thumb/v7e-m/nofp\libgcc.a(_arm_fixunsdfsi.o)
 .text          0x00000000       0xa0 d:/embeddecsystemsstuff/ticcs1230/ccs/tools/compiler/gcc-arm-none-eabi-9-2019-q4-major/bin/../lib/gcc/arm-none-eabi/9.2.1/thumb/v7e-m/nofp\libgcc.a(_aeabi_ldivmod.o)
 .data          0x00000000        0x0 d:/embeddecsystemsstuff/ticcs1230/ccs/tools/compiler/gcc-arm-none-eabi-9-2019-q4-major/bin/../lib/gcc/arm-none-eabi/9.2.1/thumb/v7e-m/nofp\libgcc.a(_aeabi_ldivmod.o)
 .bss           0x00000000        0x0 d:/embeddecsystemsstuff/ticcs1230/ccs/tools/compiler/gcc-arm-none-eabi-9-2019-q4-major/bin/../lib/gcc/arm-none-eabi/9.2.1/thumb/v7e-m/nofp\libgcc.a(_aeabi_ldivmod.o)
 .debug_frame   0x00000000       0x44 d:/embeddecsystemsstuff/ticcs1230/ccs/tools/compiler/gcc-arm-none-eabi-9-2019-q4-major/bin/../lib/gcc/arm-none-eabi/9.2.1/thumb/v7e-m/nofp\libgcc.a(_aeabi_ldivmod.o)
 .ARM.attributes
                0x00000000       0x1e d:/embeddecsystemsstuff/ticcs1230/ccs/tools/compiler/gcc-arm-none-eabi-9-2019-q4-major/bin/../lib/gcc/arm-none-eabi/9.2.1/thumb/v7e-m/nofp\libgcc.a(_aeabi_ldivmod.o)
 .data          0x00000000        0x0 d:/embeddecsystemsstuff/ticcs1230/ccs/tools/compiler/gcc-arm-none-eabi-9-2019-q4-major/bin/../lib/gcc/arm-none-eabi/9.2.1/thumb/v7e-m/nofp\libgcc.a(_aeabi_uldivmod.o)
 .bss           0x00000000        0x0 d:/embeddecsystemsstuff/ticcs1230/ccs/tools/compiler/gcc-arm-none-eabi-9-2019-q4-major/bin/../lib/gcc/arm-none-eabi/9.2.1/thumb/v7e-m/nofp\libgcc.a(_aeabi_uldivmod.o)
 .data          0x00000000        0x0 d:/embeddecsystemsstuff/ticcs1230/ccs/tools/compiler/gcc-arm-none-eabi-9-2019-q4-major/bin/../lib/gcc/arm-none-eabi/9.2.1/thumb/v7e-m/nofp\libgcc.a(_udivmoddi4.o)
 .bss           0x00000000        0x0 d:/embeddecsystemsstuff/ticcs1230/ccs/tools/compiler/gcc-arm-none-eabi-9-2019-q4-major/bin/../lib/gcc/arm-none-eabi/9.2.1/thumb/v7e-m/nofp\libgcc.a(_udivmoddi4.o)
 .ARM.extab     0x00000000        0x0 d:/embeddecsystemsstuff/ticcs1230/ccs/tools/compiler/gcc-arm-none-eabi-9-2019-q4-major/bin/../lib/gcc/arm-none-eabi/9.2.1/thumb/v7e-m/nofp\libgcc.a(_udivmoddi4.o)
 .data          0x00000000        0x0 d:/embeddecsystemsstuff/ticcs1230/ccs/tools/compiler/gcc-arm-none-eabi-9-2019-q4-major/bin/../lib/gcc/arm-none-eabi/9.2.1/thumb/v7e-m/nofp\libgcc.a(_dvmd_tls.o)
 .bss           0x00000000        0x0 d:/embeddecsystemsstuff/ticcs1230/ccs/tools/compiler/gcc-arm-none-eabi-9-2019-q4-major/bin/../lib/gcc/arm-none-eabi/9.2.1/thumb/v7e-m/nofp\libgcc.a(_dvmd_tls.o)
 .text          0x00000000        0x0 D:/EmbeddecSystemsStuff/ticcs1230/ccs/tools/compiler/gcc-arm-none-eabi-9-2019-q4-major/arm-none-eabi/lib/thumb/v7e-m/nofp\libc_nano.a(lib_a-malloc.o)
 .data          0x00000000        0x0 D:/EmbeddecSystemsStuff/ticcs1230/ccs/tools/compiler/gcc-arm-none-eabi-9-2019-q4-major/arm-none-eabi/lib/thumb/v7e-m/nofp\libc_nano.a(lib_a-malloc.o)
 .bss           0x00000000        0x0 D:/EmbeddecSystemsStuff/ticcs1230/ccs/tools/compiler/gcc-arm-none-eabi-9-2019-q4-major/arm-none-eabi/lib/thumb/v7e-m/nofp\libc_nano.a(lib_a-malloc.o)
 .text          0x00000000        0x0 D:/EmbeddecSystemsStuff/ticcs1230/ccs/tools/compiler/gcc-arm-none-eabi-9-2019-q4-major/arm-none-eabi/lib/thumb/v7e-m/nofp\libc_nano.a(lib_a-memcpy-stub.o)
 .data          0x00000000        0x0 D:/EmbeddecSystemsStuff/ticcs1230/ccs/tools/compiler/gcc-arm-none-eabi-9-2019-q4-major/arm-none-eabi/lib/thumb/v7e-m/nofp\libc_nano.a(lib_a-memcpy-stub.o)
 .bss           0x00000000        0x0 D:/EmbeddecSystemsStuff/ticcs1230/ccs/tools/compiler/gcc-arm-none-eabi-9-2019-q4-major/arm-none-eabi/lib/thumb/v7e-m/nofp\libc_nano.a(lib_a-memcpy-stub.o)
 .text          0x00000000        0x0 D:/EmbeddecSystemsStuff/ticcs1230/ccs/tools/compiler/gcc-arm-none-eabi-9-2019-q4-major/arm-none-eabi/lib/thumb/v7e-m/nofp\libc_nano.a(lib_a-memset.o)
 .data          0x00000000        0x0 D:/EmbeddecSystemsStuff/ticcs1230/ccs/tools/compiler/gcc-arm-none-eabi-9-2019-q4-major/arm-none-eabi/lib/thumb/v7e-m/nofp\libc_nano.a(lib_a-memset.o)
 .bss           0x00000000        0x0 D:/EmbeddecSystemsStuff/ticcs1230/ccs/tools/compiler/gcc-arm-none-eabi-9-2019-q4-major/arm-none-eabi/lib/thumb/v7e-m/nofp\libc_nano.a(lib_a-memset.o)
 .text          0x00000000        0x0 D:/EmbeddecSystemsStuff/ticcs1230/ccs/tools/compiler/gcc-arm-none-eabi-9-2019-q4-major/arm-none-eabi/lib/thumb/v7e-m/nofp\libc_nano.a(lib_a-nano-freer.o)
 .data          0x00000000        0x0 D:/EmbeddecSystemsStuff/ticcs1230/ccs/tools/compiler/gcc-arm-none-eabi-9-2019-q4-major/arm-none-eabi/lib/thumb/v7e-m/nofp\libc_nano.a(lib_a-nano-freer.o)
 .bss           0x00000000        0x0 D:/EmbeddecSystemsStuff/ticcs1230/ccs/tools/compiler/gcc-arm-none-eabi-9-2019-q4-major/arm-none-eabi/lib/thumb/v7e-m/nofp\libc_nano.a(lib_a-nano-freer.o)
 .text          0x00000000        0x0 D:/EmbeddecSystemsStuff/ticcs1230/ccs/tools/compiler/gcc-arm-none-eabi-9-2019-q4-major/arm-none-eabi/lib/thumb/v7e-m/nofp\libc_nano.a(lib_a-nano-mallocr.o)
 .data          0x00000000        0x0 D:/EmbeddecSystemsStuff/ticcs1230/ccs/tools/compiler/gcc-arm-none-eabi-9-2019-q4-major/arm-none-eabi/lib/thumb/v7e-m/nofp\libc_nano.a(lib_a-nano-mallocr.o)
 .bss           0x00000000        0x0 D:/EmbeddecSystemsStuff/ticcs1230/ccs/tools/compiler/gcc-arm-none-eabi-9-2019-q4-major/arm-none-eabi/lib/thumb/v7e-m/nofp\libc_nano.a(lib_a-nano-mallocr.o)
 .text          0x00000000        0x0 D:/EmbeddecSystemsStuff/ticcs1230/ccs/tools/compiler/gcc-arm-none-eabi-9-2019-q4-major/arm-none-eabi/lib/thumb/v7e-m/nofp\libc_nano.a(lib_a-sbrkr.o)
 .data          0x00000000        0x0 D:/EmbeddecSystemsStuff/ticcs1230/ccs/tools/compiler/gcc-arm-none-eabi-9-2019-q4-major/arm-none-eabi/lib/thumb/v7e-m/nofp\libc_nano.a(lib_a-sbrkr.o)
 .bss           0x00000000        0x0 D:/EmbeddecSystemsStuff/ticcs1230/ccs/tools/compiler/gcc-arm-none-eabi-9-2019-q4-major/arm-none-eabi/lib/thumb/v7e-m/nofp\libc_nano.a(lib_a-sbrkr.o)
 .text          0x00000000        0x0 D:/EmbeddecSystemsStuff/ticcs1230/ccs/tools/compiler/gcc-arm-none-eabi-9-2019-q4-major/arm-none-eabi/lib/thumb/v7e-m/nofp\libc_nano.a(lib_a-snprintf.o)
 .data          0x00000000        0x0 D:/EmbeddecSystemsStuff/ticcs1230/ccs/tools/compiler/gcc-arm-none-eabi-9-2019-q4-major/arm-none-eabi/lib/thumb/v7e-m/nofp\libc_nano.a(lib_a-snprintf.o)
 .bss           0x00000000        0x0 D:/EmbeddecSystemsStuff/ticcs1230/ccs/tools/compiler/gcc-arm-none-eabi-9-2019-q4-major/arm-none-eabi/lib/thumb/v7e-m/nofp\libc_nano.a(lib_a-snprintf.o)
 .text._snprintf_r
                0x00000000       0x5e D:/EmbeddecSystemsStuff/ticcs1230/ccs/tools/compiler/gcc-arm-none-eabi-9-2019-q4-major/arm-none-eabi/lib/thumb/v7e-m/nofp\libc_nano.a(lib_a-snprintf.o)
 .text          0x00000000        0x0 D:/EmbeddecSystemsStuff/ticcs1230/ccs/tools/compiler/gcc-arm-none-eabi-9-2019-q4-major/arm-none-eabi/lib/thumb/v7e-m/nofp\libc_nano.a(lib_a-impure.o)
 .data          0x00000000        0x0 D:/EmbeddecSystemsStuff/ticcs1230/ccs/tools/compiler/gcc-arm-none-eabi-9-2019-q4-major/arm-none-eabi/lib/thumb/v7e-m/nofp\libc_nano.a(lib_a-impure.o)
 .bss           0x00000000        0x0 D:/EmbeddecSystemsStuff/ticcs1230/ccs/tools/compiler/gcc-arm-none-eabi-9-2019-q4-major/arm-none-eabi/lib/thumb/v7e-m/nofp\libc_nano.a(lib_a-impure.o)
 .rodata._global_impure_ptr
                0x00000000        0x4 D:/EmbeddecSystemsStuff/ticcs1230/ccs/tools/compiler/gcc-arm-none-eabi-9-2019-q4-major/arm-none-eabi/lib/thumb/v7e-m/nofp\libc_nano.a(lib_a-impure.o)
 .text          0x00000000        0x0 D:/EmbeddecSystemsStuff/ticcs1230/ccs/tools/compiler/gcc-arm-none-eabi-9-2019-q4-major/arm-none-eabi/lib/thumb/v7e-m/nofp\libc_nano.a(lib_a-mlock.o)
 .data          0x00000000        0x0 D:/EmbeddecSystemsStuff/ticcs1230/ccs/tools/compiler/gcc-arm-none-eabi-9-2019-q4-major/arm-none-eabi/lib/thumb/v7e-m/nofp\libc_nano.a(lib_a-mlock.o)
 .bss           0x00000000        0x0 D:/EmbeddecSystemsStuff/ticcs1230/ccs/tools/compiler/gcc-arm-none-eabi-9-2019-q4-major/arm-none-eabi/lib/thumb/v7e-m/nofp\libc_nano.a(lib_a-mlock.o)
 .text          0x00000000        0x0 D:/EmbeddecSystemsStuff/ticcs1230/ccs/tools/compiler/gcc-arm-none-eabi-9-2019-q4-major/arm-none-eabi/lib/thumb/v7e-m/nofp\libc_nano.a(lib_a-nano-svfprintf.o)
 .data          0x00000000        0x0 D:/EmbeddecSystemsStuff/ticcs1230/ccs/tools/compiler/gcc-arm-none-eabi-9-2019-q4-major/arm-none-eabi/lib/thumb/v7e-m/nofp\libc_nano.a(lib_a-nano-svfprintf.o)
 .bss           0x00000000        0x0 D:/EmbeddecSystemsStuff/ticcs1230/ccs/tools/compiler/gcc-arm-none-eabi-9-2019-q4-major/arm-none-eabi/lib/thumb/v7e-m/nofp\libc_nano.a(lib_a-nano-svfprintf.o)
 .text.__ssprint_r
                0x00000000       0xf6 D:/EmbeddecSystemsStuff/ticcs1230/ccs/tools/compiler/gcc-arm-none-eabi-9-2019-q4-major/arm-none-eabi/lib/thumb/v7e-m/nofp\libc_nano.a(lib_a-nano-svfprintf.o)
 .text          0x00000000        0x0 D:/EmbeddecSystemsStuff/ticcs1230/ccs/tools/compiler/gcc-arm-none-eabi-9-2019-q4-major/arm-none-eabi/lib/thumb/v7e-m/nofp\libc_nano.a(lib_a-nano-vfprintf_i.o)
 .data          0x00000000        0x0 D:/EmbeddecSystemsStuff/ticcs1230/ccs/tools/compiler/gcc-arm-none-eabi-9-2019-q4-major/arm-none-eabi/lib/thumb/v7e-m/nofp\libc_nano.a(lib_a-nano-vfprintf_i.o)
 .bss           0x00000000        0x0 D:/EmbeddecSystemsStuff/ticcs1230/ccs/tools/compiler/gcc-arm-none-eabi-9-2019-q4-major/arm-none-eabi/lib/thumb/v7e-m/nofp\libc_nano.a(lib_a-nano-vfprintf_i.o)
 .text          0x00000000        0x0 D:/EmbeddecSystemsStuff/ticcs1230/ccs/tools/compiler/gcc-arm-none-eabi-9-2019-q4-major/arm-none-eabi/lib/thumb/v7e-m/nofp\libc_nano.a(lib_a-reent.o)
 .data          0x00000000        0x0 D:/EmbeddecSystemsStuff/ticcs1230/ccs/tools/compiler/gcc-arm-none-eabi-9-2019-q4-major/arm-none-eabi/lib/thumb/v7e-m/nofp\libc_nano.a(lib_a-reent.o)
 .bss           0x00000000        0x0 D:/EmbeddecSystemsStuff/ticcs1230/ccs/tools/compiler/gcc-arm-none-eabi-9-2019-q4-major/arm-none-eabi/lib/thumb/v7e-m/nofp\libc_nano.a(lib_a-reent.o)
 .text.cleanup_glue
                0x00000000       0x1a D:/EmbeddecSystemsStuff/ticcs1230/ccs/tools/compiler/gcc-arm-none-eabi-9-2019-q4-major/arm-none-eabi/lib/thumb/v7e-m/nofp\libc_nano.a(lib_a-reent.o)
 .text._reclaim_reent
                0x00000000       0xb8 D:/EmbeddecSystemsStuff/ticcs1230/ccs/tools/compiler/gcc-arm-none-eabi-9-2019-q4-major/arm-none-eabi/lib/thumb/v7e-m/nofp\libc_nano.a(lib_a-reent.o)
 .text          0x00000000        0x0 D:/EmbeddecSystemsStuff/ticcs1230/ccs/tools/compiler/gcc-arm-none-eabi-9-2019-q4-major/arm-none-eabi/lib/thumb/v7e-m/nofp\libc_nano.a(lib_a-lock.o)
 .data          0x00000000        0x0 D:/EmbeddecSystemsStuff/ticcs1230/ccs/tools/compiler/gcc-arm-none-eabi-9-2019-q4-major/arm-none-eabi/lib/thumb/v7e-m/nofp\libc_nano.a(lib_a-lock.o)
 .bss           0x00000000        0x0 D:/EmbeddecSystemsStuff/ticcs1230/ccs/tools/compiler/gcc-arm-none-eabi-9-2019-q4-major/arm-none-eabi/lib/thumb/v7e-m/nofp\libc_nano.a(lib_a-lock.o)
 .text.__retarget_lock_init
                0x00000000        0x2 D:/EmbeddecSystemsStuff/ticcs1230/ccs/tools/compiler/gcc-arm-none-eabi-9-2019-q4-major/arm-none-eabi/lib/thumb/v7e-m/nofp\libc_nano.a(lib_a-lock.o)
 .text.__retarget_lock_init_recursive
                0x00000000        0x2 D:/EmbeddecSystemsStuff/ticcs1230/ccs/tools/compiler/gcc-arm-none-eabi-9-2019-q4-major/arm-none-eabi/lib/thumb/v7e-m/nofp\libc_nano.a(lib_a-lock.o)
 .text.__retarget_lock_close
                0x00000000        0x2 D:/EmbeddecSystemsStuff/ticcs1230/ccs/tools/compiler/gcc-arm-none-eabi-9-2019-q4-major/arm-none-eabi/lib/thumb/v7e-m/nofp\libc_nano.a(lib_a-lock.o)
 .text.__retarget_lock_close_recursive
                0x00000000        0x2 D:/EmbeddecSystemsStuff/ticcs1230/ccs/tools/compiler/gcc-arm-none-eabi-9-2019-q4-major/arm-none-eabi/lib/thumb/v7e-m/nofp\libc_nano.a(lib_a-lock.o)
 .text.__retarget_lock_acquire
                0x00000000        0x2 D:/EmbeddecSystemsStuff/ticcs1230/ccs/tools/compiler/gcc-arm-none-eabi-9-2019-q4-major/arm-none-eabi/lib/thumb/v7e-m/nofp\libc_nano.a(lib_a-lock.o)
 .text.__retarget_lock_try_acquire
                0x00000000        0x4 D:/EmbeddecSystemsStuff/ticcs1230/ccs/tools/compiler/gcc-arm-none-eabi-9-2019-q4-major/arm-none-eabi/lib/thumb/v7e-m/nofp\libc_nano.a(lib_a-lock.o)
 .text.__retarget_lock_try_acquire_recursive
                0x00000000        0x4 D:/EmbeddecSystemsStuff/ticcs1230/ccs/tools/compiler/gcc-arm-none-eabi-9-2019-q4-major/arm-none-eabi/lib/thumb/v7e-m/nofp\libc_nano.a(lib_a-lock.o)
 .text.__retarget_lock_release
                0x00000000        0x2 D:/EmbeddecSystemsStuff/ticcs1230/ccs/tools/compiler/gcc-arm-none-eabi-9-2019-q4-major/arm-none-eabi/lib/thumb/v7e-m/nofp\libc_nano.a(lib_a-lock.o)
 .data          0x00000000        0x0 D:/EmbeddecSystemsStuff/ticcs1230/ccs/tools/compiler/gcc-arm-none-eabi-9-2019-q4-major/arm-none-eabi/lib/thumb/v7e-m/nofp\libc_nano.a(lib_a-memchr.o)
 .bss           0x00000000        0x0 D:/EmbeddecSystemsStuff/ticcs1230/ccs/tools/compiler/gcc-arm-none-eabi-9-2019-q4-major/arm-none-eabi/lib/thumb/v7e-m/nofp\libc_nano.a(lib_a-memchr.o)
 .text          0x00000000        0x0 D:/EmbeddecSystemsStuff/ticcs1230/ccs/tools/compiler/gcc-arm-none-eabi-9-2019-q4-major/arm-none-eabi/lib/thumb/v7e-m/nofp\libc_nano.a(lib_a-memmove.o)
 .data          0x00000000        0x0 D:/EmbeddecSystemsStuff/ticcs1230/ccs/tools/compiler/gcc-arm-none-eabi-9-2019-q4-major/arm-none-eabi/lib/thumb/v7e-m/nofp\libc_nano.a(lib_a-memmove.o)
 .bss           0x00000000        0x0 D:/EmbeddecSystemsStuff/ticcs1230/ccs/tools/compiler/gcc-arm-none-eabi-9-2019-q4-major/arm-none-eabi/lib/thumb/v7e-m/nofp\libc_nano.a(lib_a-memmove.o)
 .text          0x00000000        0x0 D:/EmbeddecSystemsStuff/ticcs1230/ccs/tools/compiler/gcc-arm-none-eabi-9-2019-q4-major/arm-none-eabi/lib/thumb/v7e-m/nofp\libc_nano.a(lib_a-nano-reallocr.o)
 .data          0x00000000        0x0 D:/EmbeddecSystemsStuff/ticcs1230/ccs/tools/compiler/gcc-arm-none-eabi-9-2019-q4-major/arm-none-eabi/lib/thumb/v7e-m/nofp\libc_nano.a(lib_a-nano-reallocr.o)
 .bss           0x00000000        0x0 D:/EmbeddecSystemsStuff/ticcs1230/ccs/tools/compiler/gcc-arm-none-eabi-9-2019-q4-major/arm-none-eabi/lib/thumb/v7e-m/nofp\libc_nano.a(lib_a-nano-reallocr.o)
 .text          0x00000000        0x0 D:/EmbeddecSystemsStuff/ticcs1230/ccs/tools/compiler/gcc-arm-none-eabi-9-2019-q4-major/arm-none-eabi/lib/thumb/v7e-m/nofp\libc_nano.a(lib_a-nano-msizer.o)
 .data          0x00000000        0x0 D:/EmbeddecSystemsStuff/ticcs1230/ccs/tools/compiler/gcc-arm-none-eabi-9-2019-q4-major/arm-none-eabi/lib/thumb/v7e-m/nofp\libc_nano.a(lib_a-nano-msizer.o)
 .bss           0x00000000        0x0 D:/EmbeddecSystemsStuff/ticcs1230/ccs/tools/compiler/gcc-arm-none-eabi-9-2019-q4-major/arm-none-eabi/lib/thumb/v7e-m/nofp\libc_nano.a(lib_a-nano-msizer.o)
 .text          0x00000000        0x0 D:/EmbeddecSystemsStuff/ticcs1230/ccs/tools/compiler/gcc-arm-none-eabi-9-2019-q4-major/arm-none-eabi/lib/thumb/v7e-m/nofp\libnosys.a(sbrk.o)
 .data          0x00000000        0x0 D:/EmbeddecSystemsStuff/ticcs1230/ccs/tools/compiler/gcc-arm-none-eabi-9-2019-q4-major/arm-none-eabi/lib/thumb/v7e-m/nofp\libnosys.a(sbrk.o)
 .bss           0x00000000        0x0 D:/EmbeddecSystemsStuff/ticcs1230/ccs/tools/compiler/gcc-arm-none-eabi-9-2019-q4-major/arm-none-eabi/lib/thumb/v7e-m/nofp\libnosys.a(sbrk.o)

Memory Configuration

Name             Origin             Length             Attributes
SRAM             0x20004000         0x0003c000         xrw
LOG_DATA         0x90000000         0x00040000         r
LOG_PTR          0x94000008         0x00040000         r
*default*        0x00000000         0xffffffff

Linker script and memory map

LOAD ./gpiointerrupt.o
LOAD ./syscfg/ti_drivers_config.o
LOAD ./main_nortos.o
                0x00001000                STACKSIZE = 0x1000
                0x00008000                HEAP_SIZE = 0x8000
                0x20004000                PROVIDE (_resetVecs_base_address = DEFINED (_resetVecs_base_address)?_resetVecs_base_address:0x20004000)

.resetVecs      0x20004000       0x40
 *(.resetVecs)
 .resetVecs     0x20004000       0x40 D:/EmbeddecSystemsStuff/ticcs1230/simplelink_cc32xx_sdk_7_10_00_13/kernel/nortos\lib/gcc/m4/nortos_cc32xx.a(startup_cc32xx_gcc.c.obj)

.ramVecs        0x20004400      0x30c
 *(.ramVecs)
 .ramVecs       0x20004400      0x30c D:/EmbeddecSystemsStuff/ticcs1230/simplelink_cc32xx_sdk_7_10_00_13/kernel/nortos\lib/gcc/m4/nortos_cc32xx.a(startup_cc32xx_gcc.c.obj)

.text           0x20004710     0x6a98
 CREATE_OBJECT_SYMBOLS
 *(.text)
 .text          0x20004710       0x98 D:/EmbeddecSystemsStuff/ticcs1230/simplelink_cc32xx_sdk_7_10_00_13/source\ti/drivers/lib/gcc/m4/drivers_cc32xx.a(PowerCC32XX_gcc.asm.obj)
                0x20004710                PowerCC32XX_enterLPDS
                0x20004754                PowerCC32XX_resumeLPDS
 .text          0x200047a8      0x254 d:/embeddecsystemsstuff/ticcs1230/ccs/tools/compiler/gcc-arm-none-eabi-9-2019-q4-major/bin/../lib/gcc/arm-none-eabi/9.2.1/thumb/v7e-m/nofp\libgcc.a(_arm_muldf3.o)
                0x200047a8                __muldf3
                0x200047a8                __aeabi_dmul
 .text          0x200049fc      0x378 d:/embeddecsystemsstuff/ticcs1230/ccs/tools/compiler/gcc-arm-none-eabi-9-2019-q4-major/bin/../lib/gcc/arm-none-eabi/9.2.1/thumb/v7e-m/nofp\libgcc.a(_arm_addsubdf3.o)
                0x200049fc                __aeabi_drsub
                0x20004a04                __aeabi_dsub
                0x20004a04                __subdf3
                0x20004a08                __aeabi_dadd
                0x20004a08                __adddf3
                0x20004c80                __floatunsidf
                0x20004c80                __aeabi_ui2d
                0x20004ca0                __floatsidf
                0x20004ca0                __aeabi_i2d
                0x20004cc4                __aeabi_f2d
                0x20004cc4                __extendsfdf2
                0x20004d08                __floatundidf
                0x20004d08                __aeabi_ul2d
                0x20004d18                __floatdidf
                0x20004d18                __aeabi_l2d
 .text          0x20004d74       0x50 d:/embeddecsystemsstuff/ticcs1230/ccs/tools/compiler/gcc-arm-none-eabi-9-2019-q4-major/bin/../lib/gcc/arm-none-eabi/9.2.1/thumb/v7e-m/nofp\libgcc.a(_arm_fixdfsi.o)
                0x20004d74                __aeabi_d2iz
                0x20004d74                __fixdfsi
 .text          0x20004dc4       0x40 d:/embeddecsystemsstuff/ticcs1230/ccs/tools/compiler/gcc-arm-none-eabi-9-2019-q4-major/bin/../lib/gcc/arm-none-eabi/9.2.1/thumb/v7e-m/nofp\libgcc.a(_arm_fixunsdfsi.o)
                0x20004dc4                __aeabi_d2uiz
                0x20004dc4                __fixunsdfsi
 .text          0x20004e04       0x30 d:/embeddecsystemsstuff/ticcs1230/ccs/tools/compiler/gcc-arm-none-eabi-9-2019-q4-major/bin/../lib/gcc/arm-none-eabi/9.2.1/thumb/v7e-m/nofp\libgcc.a(_aeabi_uldivmod.o)
                0x20004e04                __aeabi_uldivmod
 .text          0x20004e34      0x2c0 d:/embeddecsystemsstuff/ticcs1230/ccs/tools/compiler/gcc-arm-none-eabi-9-2019-q4-major/bin/../lib/gcc/arm-none-eabi/9.2.1/thumb/v7e-m/nofp\libgcc.a(_udivmoddi4.o)
                0x20004e34                __udivmoddi4
 .text          0x200050f4        0x4 d:/embeddecsystemsstuff/ticcs1230/ccs/tools/compiler/gcc-arm-none-eabi-9-2019-q4-major/bin/../lib/gcc/arm-none-eabi/9.2.1/thumb/v7e-m/nofp\libgcc.a(_dvmd_tls.o)
                0x200050f4                __aeabi_idiv0
                0x200050f4                __aeabi_ldiv0
 *fill*         0x200050f8        0x8 
 .text          0x20005100       0xa0 D:/EmbeddecSystemsStuff/ticcs1230/ccs/tools/compiler/gcc-arm-none-eabi-9-2019-q4-major/arm-none-eabi/lib/thumb/v7e-m/nofp\libc_nano.a(lib_a-memchr.o)
                0x20005100                memchr
 *(.text.*)
 .text.gpioButtonFxn0
                0x200051a0        0xc ./gpiointerrupt.o
                0x200051a0                gpioButtonFxn0
 .text.gpioButtonFxn1
                0x200051ac        0xc ./gpiointerrupt.o
                0x200051ac                gpioButtonFxn1
 .text.TimerISR
                0x200051b8        0xc ./gpiointerrupt.o
                0x200051b8                TimerISR
 .text.BP_SM    0x200051c4       0x30 ./gpiointerrupt.o
                0x200051c4                BP_SM
 .text.SD_SM    0x200051f4       0x90 ./gpiointerrupt.o
                0x200051f4                SD_SM
 .text.InitGPIOItems
                0x20005284       0x54 ./gpiointerrupt.o
                0x20005284                InitGPIOItems
 .text.InitUART2
                0x200052d8       0x30 ./gpiointerrupt.o
                0x200052d8                InitUART2
 .text.InitI2C  0x20005308      0x1ac ./gpiointerrupt.o
                0x20005308                InitI2C
 .text.InitTimer
                0x200054b4       0x48 ./gpiointerrupt.o
                0x200054b4                InitTimer
 .text.mainThread
                0x200054fc       0xd8 ./gpiointerrupt.o
                0x200054fc                mainThread
 .text.readTemp
                0x200055d4       0x9c ./gpiointerrupt.o
                0x200055d4                readTemp
 .text.AT_SM    0x20005670       0x6c ./gpiointerrupt.o
                0x20005670                AT_SM
 .text.dmaErrorFxn
                0x200056dc        0xc ./syscfg/ti_drivers_config.o
 .text.Board_initHook
                0x200056e8        0x4 ./syscfg/ti_drivers_config.o
                0x200056e8                Board_initHook
 .text.Board_init
                0x200056ec       0x14 ./syscfg/ti_drivers_config.o
                0x200056ec                Board_init
 .text.startup.main
                0x20005700       0x14 ./main_nortos.o
                0x20005700                main
 .text.GPIO_setCallback
                0x20005714       0x1c D:/EmbeddecSystemsStuff/ticcs1230/simplelink_cc32xx_sdk_7_10_00_13/source\ti/drivers/lib/gcc/m4/drivers_cc32xx.a(GPIO.c.obj)
                0x20005714                GPIO_setCallback
 .text.GPIO_hwiIntFxn
                0x20005730       0x54 D:/EmbeddecSystemsStuff/ticcs1230/simplelink_cc32xx_sdk_7_10_00_13/source\ti/drivers/lib/gcc/m4/drivers_cc32xx.a(GPIOCC32XX.c.obj)
                0x20005730                GPIO_hwiIntFxn
 .text.GPIO_enableInt
                0x20005784       0x44 D:/EmbeddecSystemsStuff/ticcs1230/simplelink_cc32xx_sdk_7_10_00_13/source\ti/drivers/lib/gcc/m4/drivers_cc32xx.a(GPIOCC32XX.c.obj)
                0x20005784                GPIO_enableInt
 .text.GPIO_setInterruptConfig
                0x200057c8       0x9c D:/EmbeddecSystemsStuff/ticcs1230/simplelink_cc32xx_sdk_7_10_00_13/source\ti/drivers/lib/gcc/m4/drivers_cc32xx.a(GPIOCC32XX.c.obj)
                0x200057c8                GPIO_setInterruptConfig
 .text.GPIO_setConfig
                0x20005864      0x160 D:/EmbeddecSystemsStuff/ticcs1230/simplelink_cc32xx_sdk_7_10_00_13/source\ti/drivers/lib/gcc/m4/drivers_cc32xx.a(GPIOCC32XX.c.obj)
                0x20005864                GPIO_setConfig
 .text.GPIO_init
                0x200059c4       0xa0 D:/EmbeddecSystemsStuff/ticcs1230/simplelink_cc32xx_sdk_7_10_00_13/source\ti/drivers/lib/gcc/m4/drivers_cc32xx.a(GPIOCC32XX.c.obj)
                0x200059c4                GPIO_init
 .text.powerNotifyFxn
                0x20005a64       0x84 D:/EmbeddecSystemsStuff/ticcs1230/simplelink_cc32xx_sdk_7_10_00_13/source\ti/drivers/lib/gcc/m4/drivers_cc32xx.a(GPIOCC32XX.c.obj)
 .text.GPIO_write
                0x20005ae8       0x8c D:/EmbeddecSystemsStuff/ticcs1230/simplelink_cc32xx_sdk_7_10_00_13/source\ti/drivers/lib/gcc/m4/drivers_cc32xx.a(GPIOCC32XX.c.obj)
                0x20005ae8                GPIO_write
 .text.I2C_init
                0x20005b74        0x4 D:/EmbeddecSystemsStuff/ticcs1230/simplelink_cc32xx_sdk_7_10_00_13/source\ti/drivers/lib/gcc/m4/drivers_cc32xx.a(I2C.c.obj)
                0x20005b74                I2C_init
 .text.I2C_Params_init
                0x20005b78        0xc D:/EmbeddecSystemsStuff/ticcs1230/simplelink_cc32xx_sdk_7_10_00_13/source\ti/drivers/lib/gcc/m4/drivers_cc32xx.a(I2C.c.obj)
                0x20005b78                I2C_Params_init
 .text.I2C_transferTimeout
                0x20005b84      0x150 D:/EmbeddecSystemsStuff/ticcs1230/simplelink_cc32xx_sdk_7_10_00_13/source\ti/drivers/lib/gcc/m4/drivers_cc32xx.a(I2C.c.obj)
                0x20005b84                I2C_transferTimeout
 .text.I2C_transfer
                0x20005cd4       0x14 D:/EmbeddecSystemsStuff/ticcs1230/simplelink_cc32xx_sdk_7_10_00_13/source\ti/drivers/lib/gcc/m4/drivers_cc32xx.a(I2C.c.obj)
                0x20005cd4                I2C_transfer
 .text.I2CCC32XX_blockingCallback
                0x20005ce8        0x8 D:/EmbeddecSystemsStuff/ticcs1230/simplelink_cc32xx_sdk_7_10_00_13/source\ti/drivers/lib/gcc/m4/drivers_cc32xx.a(I2CCC32XX.c.obj)
 .text.I2CCC32XX_primeReadBurst.isra.0
                0x20005cf0       0x74 D:/EmbeddecSystemsStuff/ticcs1230/simplelink_cc32xx_sdk_7_10_00_13/source\ti/drivers/lib/gcc/m4/drivers_cc32xx.a(I2CCC32XX.c.obj)
 .text.I2CCC32XX_initHw.isra.0
                0x20005d64       0x70 D:/EmbeddecSystemsStuff/ticcs1230/simplelink_cc32xx_sdk_7_10_00_13/source\ti/drivers/lib/gcc/m4/drivers_cc32xx.a(I2CCC32XX.c.obj)
 .text.I2CCC32XX_postNotify
                0x20005dd4       0x10 D:/EmbeddecSystemsStuff/ticcs1230/simplelink_cc32xx_sdk_7_10_00_13/source\ti/drivers/lib/gcc/m4/drivers_cc32xx.a(I2CCC32XX.c.obj)
 .text.I2CCC32XX_primeWriteBurst
                0x20005de4       0xac D:/EmbeddecSystemsStuff/ticcs1230/simplelink_cc32xx_sdk_7_10_00_13/source\ti/drivers/lib/gcc/m4/drivers_cc32xx.a(I2CCC32XX.c.obj)
 .text.I2CCC32XX_completeTransfer
                0x20005e90      0x108 D:/EmbeddecSystemsStuff/ticcs1230/simplelink_cc32xx_sdk_7_10_00_13/source\ti/drivers/lib/gcc/m4/drivers_cc32xx.a(I2CCC32XX.c.obj)
 .text.I2CCC32XX_hwiFxn
                0x20005f98      0x1a8 D:/EmbeddecSystemsStuff/ticcs1230/simplelink_cc32xx_sdk_7_10_00_13/source\ti/drivers/lib/gcc/m4/drivers_cc32xx.a(I2CCC32XX.c.obj)
 .text.I2CSupport_primeTransfer
                0x20006140       0x70 D:/EmbeddecSystemsStuff/ticcs1230/simplelink_cc32xx_sdk_7_10_00_13/source\ti/drivers/lib/gcc/m4/drivers_cc32xx.a(I2CCC32XX.c.obj)
                0x20006140                I2CSupport_primeTransfer
 .text.I2CSupport_controllerFinish
                0x200061b0        0x8 D:/EmbeddecSystemsStuff/ticcs1230/simplelink_cc32xx_sdk_7_10_00_13/source\ti/drivers/lib/gcc/m4/drivers_cc32xx.a(I2CCC32XX.c.obj)
                0x200061b0                I2CSupport_controllerFinish
 .text.I2CSupport_powerRelConstraint
                0x200061b8        0x8 D:/EmbeddecSystemsStuff/ticcs1230/simplelink_cc32xx_sdk_7_10_00_13/source\ti/drivers/lib/gcc/m4/drivers_cc32xx.a(I2CCC32XX.c.obj)
                0x200061b8                I2CSupport_powerRelConstraint
 .text.I2CSupport_powerSetConstraint
                0x200061c0        0x8 D:/EmbeddecSystemsStuff/ticcs1230/simplelink_cc32xx_sdk_7_10_00_13/source\ti/drivers/lib/gcc/m4/drivers_cc32xx.a(I2CCC32XX.c.obj)
                0x200061c0                I2CSupport_powerSetConstraint
 .text.I2C_open
                0x200061c8      0x10c D:/EmbeddecSystemsStuff/ticcs1230/simplelink_cc32xx_sdk_7_10_00_13/source\ti/drivers/lib/gcc/m4/drivers_cc32xx.a(I2CCC32XX.c.obj)
                0x200061c8                I2C_open
 .text.Power_disablePolicy
                0x200062d4       0x14 D:/EmbeddecSystemsStuff/ticcs1230/simplelink_cc32xx_sdk_7_10_00_13/source\ti/drivers/lib/gcc/m4/drivers_cc32xx.a(PowerCC32XX.c.obj)
                0x200062d4                Power_disablePolicy
 .text.Power_enablePolicy
                0x200062e8       0x10 D:/EmbeddecSystemsStuff/ticcs1230/simplelink_cc32xx_sdk_7_10_00_13/source\ti/drivers/lib/gcc/m4/drivers_cc32xx.a(PowerCC32XX.c.obj)
                0x200062e8                Power_enablePolicy
 .text.Power_getConstraintMask
                0x200062f8        0xc D:/EmbeddecSystemsStuff/ticcs1230/simplelink_cc32xx_sdk_7_10_00_13/source\ti/drivers/lib/gcc/m4/drivers_cc32xx.a(PowerCC32XX.c.obj)
                0x200062f8                Power_getConstraintMask
 .text.Power_getTransitionLatency
                0x20006304       0x14 D:/EmbeddecSystemsStuff/ticcs1230/simplelink_cc32xx_sdk_7_10_00_13/source\ti/drivers/lib/gcc/m4/drivers_cc32xx.a(PowerCC32XX.c.obj)
                0x20006304                Power_getTransitionLatency
 .text.Power_idleFunc
                0x20006318       0x14 D:/EmbeddecSystemsStuff/ticcs1230/simplelink_cc32xx_sdk_7_10_00_13/source\ti/drivers/lib/gcc/m4/drivers_cc32xx.a(PowerCC32XX.c.obj)
                0x20006318                Power_idleFunc
 .text.Power_init
                0x2000632c       0xd8 D:/EmbeddecSystemsStuff/ticcs1230/simplelink_cc32xx_sdk_7_10_00_13/source\ti/drivers/lib/gcc/m4/drivers_cc32xx.a(PowerCC32XX.c.obj)
                0x2000632c                Power_init
 .text.Power_registerNotify
                0x20006404       0x24 D:/EmbeddecSystemsStuff/ticcs1230/simplelink_cc32xx_sdk_7_10_00_13/source\ti/drivers/lib/gcc/m4/drivers_cc32xx.a(PowerCC32XX.c.obj)
                0x20006404                Power_registerNotify
 .text.Power_releaseConstraint
                0x20006428       0x4c D:/EmbeddecSystemsStuff/ticcs1230/simplelink_cc32xx_sdk_7_10_00_13/source\ti/drivers/lib/gcc/m4/drivers_cc32xx.a(PowerCC32XX.c.obj)
                0x20006428                Power_releaseConstraint
 .text.Power_releaseDependency
                0x20006474       0x54 D:/EmbeddecSystemsStuff/ticcs1230/simplelink_cc32xx_sdk_7_10_00_13/source\ti/drivers/lib/gcc/m4/drivers_cc32xx.a(PowerCC32XX.c.obj)
                0x20006474                Power_releaseDependency
 .text.Power_setConstraint
                0x200064c8       0x38 D:/EmbeddecSystemsStuff/ticcs1230/simplelink_cc32xx_sdk_7_10_00_13/source\ti/drivers/lib/gcc/m4/drivers_cc32xx.a(PowerCC32XX.c.obj)
                0x200064c8                Power_setConstraint
 .text.Power_setDependency
                0x20006500       0x78 D:/EmbeddecSystemsStuff/ticcs1230/simplelink_cc32xx_sdk_7_10_00_13/source\ti/drivers/lib/gcc/m4/drivers_cc32xx.a(PowerCC32XX.c.obj)
                0x20006500                Power_setDependency
 .text.Power_sleep
                0x20006578      0x554 D:/EmbeddecSystemsStuff/ticcs1230/simplelink_cc32xx_sdk_7_10_00_13/source\ti/drivers/lib/gcc/m4/drivers_cc32xx.a(PowerCC32XX.c.obj)
                0x20006578                Power_sleep
 .text.Power_unregisterNotify
                0x20006acc       0x20 D:/EmbeddecSystemsStuff/ticcs1230/simplelink_cc32xx_sdk_7_10_00_13/source\ti/drivers/lib/gcc/m4/drivers_cc32xx.a(PowerCC32XX.c.obj)
                0x20006acc                Power_unregisterNotify
 .text.PowerCC32XX_getParkState
                0x20006aec       0x38 D:/EmbeddecSystemsStuff/ticcs1230/simplelink_cc32xx_sdk_7_10_00_13/source\ti/drivers/lib/gcc/m4/drivers_cc32xx.a(PowerCC32XX.c.obj)
                0x20006aec                PowerCC32XX_getParkState
 .text.PowerCC32XX_restoreParkState
                0x20006b24       0x30 D:/EmbeddecSystemsStuff/ticcs1230/simplelink_cc32xx_sdk_7_10_00_13/source\ti/drivers/lib/gcc/m4/drivers_cc32xx.a(PowerCC32XX.c.obj)
                0x20006b24                PowerCC32XX_restoreParkState
 .text.PowerCC32XX_setParkState
                0x20006b54       0x64 D:/EmbeddecSystemsStuff/ticcs1230/simplelink_cc32xx_sdk_7_10_00_13/source\ti/drivers/lib/gcc/m4/drivers_cc32xx.a(PowerCC32XX.c.obj)
                0x20006b54                PowerCC32XX_setParkState
 .text.PowerCC32XX_reset
                0x20006bb8       0x20 D:/EmbeddecSystemsStuff/ticcs1230/simplelink_cc32xx_sdk_7_10_00_13/source\ti/drivers/lib/gcc/m4/drivers_cc32xx.a(PowerCC32XX.c.obj)
                0x20006bb8                PowerCC32XX_reset
 .text.Timer_init
                0x20006bd8        0x4 D:/EmbeddecSystemsStuff/ticcs1230/simplelink_cc32xx_sdk_7_10_00_13/source\ti/drivers/lib/gcc/m4/drivers_cc32xx.a(Timer.c.obj)
                0x20006bd8                Timer_init
 .text.Timer_Params_init
                0x20006bdc       0x10 D:/EmbeddecSystemsStuff/ticcs1230/simplelink_cc32xx_sdk_7_10_00_13/source\ti/drivers/lib/gcc/m4/drivers_cc32xx.a(Timer.c.obj)
                0x20006bdc                Timer_Params_init
 .text.Timer_start
                0x20006bec       0x48 D:/EmbeddecSystemsStuff/ticcs1230/simplelink_cc32xx_sdk_7_10_00_13/source\ti/drivers/lib/gcc/m4/drivers_cc32xx.a(Timer.c.obj)
                0x20006bec                Timer_start
 .text.Timer_stop
                0x20006c34       0x44 D:/EmbeddecSystemsStuff/ticcs1230/simplelink_cc32xx_sdk_7_10_00_13/source\ti/drivers/lib/gcc/m4/drivers_cc32xx.a(Timer.c.obj)
                0x20006c34                Timer_stop
 .text.TimerCC32XX_hwiIntFunction
                0x20006c78       0x38 D:/EmbeddecSystemsStuff/ticcs1230/simplelink_cc32xx_sdk_7_10_00_13/source\ti/drivers/lib/gcc/m4/drivers_cc32xx.a(TimerCC32XX.c.obj)
 .text.postNotifyFxn
                0x20006cb0       0x58 D:/EmbeddecSystemsStuff/ticcs1230/simplelink_cc32xx_sdk_7_10_00_13/source\ti/drivers/lib/gcc/m4/drivers_cc32xx.a(TimerCC32XX.c.obj)
 .text.Timer_close
                0x20006d08       0xb4 D:/EmbeddecSystemsStuff/ticcs1230/simplelink_cc32xx_sdk_7_10_00_13/source\ti/drivers/lib/gcc/m4/drivers_cc32xx.a(TimerCC32XX.c.obj)
                0x20006d08                Timer_close
 .text.Timer_open
                0x20006dbc      0x284 D:/EmbeddecSystemsStuff/ticcs1230/simplelink_cc32xx_sdk_7_10_00_13/source\ti/drivers/lib/gcc/m4/drivers_cc32xx.a(TimerCC32XX.c.obj)
                0x20006dbc                Timer_open
 .text.TimerSupport_timerDisable
                0x20007040       0x28 D:/EmbeddecSystemsStuff/ticcs1230/simplelink_cc32xx_sdk_7_10_00_13/source\ti/drivers/lib/gcc/m4/drivers_cc32xx.a(TimerCC32XX.c.obj)
                0x20007040                TimerSupport_timerDisable
 .text.TimerSupport_timerEnable
                0x20007068       0x50 D:/EmbeddecSystemsStuff/ticcs1230/simplelink_cc32xx_sdk_7_10_00_13/source\ti/drivers/lib/gcc/m4/drivers_cc32xx.a(TimerCC32XX.c.obj)
                0x20007068                TimerSupport_timerEnable
 .text.UART2_Params_init
                0x200070b8       0x1c D:/EmbeddecSystemsStuff/ticcs1230/simplelink_cc32xx_sdk_7_10_00_13/source\ti/drivers/lib/gcc/m4/drivers_cc32xx.a(UART2.c.obj)
                0x200070b8                UART2_Params_init
 .text.UART2_rxDisable
                0x200070d4       0x40 D:/EmbeddecSystemsStuff/ticcs1230/simplelink_cc32xx_sdk_7_10_00_13/source\ti/drivers/lib/gcc/m4/drivers_cc32xx.a(UART2.c.obj)
                0x200070d4                UART2_rxDisable
 .text.UART2_writeTimeoutBlocking
                0x20007114      0x174 D:/EmbeddecSystemsStuff/ticcs1230/simplelink_cc32xx_sdk_7_10_00_13/source\ti/drivers/lib/gcc/m4/drivers_cc32xx.a(UART2.c.obj)
                0x20007114                UART2_writeTimeoutBlocking
 .text.UART2_writeTimeoutNonblocking
                0x20007288      0x124 D:/EmbeddecSystemsStuff/ticcs1230/simplelink_cc32xx_sdk_7_10_00_13/source\ti/drivers/lib/gcc/m4/drivers_cc32xx.a(UART2.c.obj)
                0x20007288                UART2_writeTimeoutNonblocking
 .text.UART2_writeTimeout
                0x200073ac       0x18 D:/EmbeddecSystemsStuff/ticcs1230/simplelink_cc32xx_sdk_7_10_00_13/source\ti/drivers/lib/gcc/m4/drivers_cc32xx.a(UART2.c.obj)
                0x200073ac                UART2_writeTimeout
 .text.UART2_write
                0x200073c4       0x14 D:/EmbeddecSystemsStuff/ticcs1230/simplelink_cc32xx_sdk_7_10_00_13/source\ti/drivers/lib/gcc/m4/drivers_cc32xx.a(UART2.c.obj)
                0x200073c4                UART2_write
 .text.UART2CC32XX_eventCallback
                0x200073d8        0x4 D:/EmbeddecSystemsStuff/ticcs1230/simplelink_cc32xx_sdk_7_10_00_13/source\ti/drivers/lib/gcc/m4/drivers_cc32xx.a(UART2CC32XX.c.obj)
 .text.UART2CC32XX_initHw.isra.0
                0x200073dc       0xd4 D:/EmbeddecSystemsStuff/ticcs1230/simplelink_cc32xx_sdk_7_10_00_13/source\ti/drivers/lib/gcc/m4/drivers_cc32xx.a(UART2CC32XX.c.obj)
 .text.UART2CC32XX_postNotifyFxn
                0x200074b0       0x10 D:/EmbeddecSystemsStuff/ticcs1230/simplelink_cc32xx_sdk_7_10_00_13/source\ti/drivers/lib/gcc/m4/drivers_cc32xx.a(UART2CC32XX.c.obj)
 .text.UART2_close
                0x200074c0      0x100 D:/EmbeddecSystemsStuff/ticcs1230/simplelink_cc32xx_sdk_7_10_00_13/source\ti/drivers/lib/gcc/m4/drivers_cc32xx.a(UART2CC32XX.c.obj)
                0x200074c0                UART2_close
 .text.UART2_open
                0x200075c0      0x250 D:/EmbeddecSystemsStuff/ticcs1230/simplelink_cc32xx_sdk_7_10_00_13/source\ti/drivers/lib/gcc/m4/drivers_cc32xx.a(UART2CC32XX.c.obj)
                0x200075c0                UART2_open
 .text.UART2Support_disableRx
                0x20007810       0x24 D:/EmbeddecSystemsStuff/ticcs1230/simplelink_cc32xx_sdk_7_10_00_13/source\ti/drivers/lib/gcc/m4/drivers_cc32xx.a(UART2CC32XX.c.obj)
                0x20007810                UART2Support_disableRx
 .text.UART2Support_disableTx
                0x20007834        0xc D:/EmbeddecSystemsStuff/ticcs1230/simplelink_cc32xx_sdk_7_10_00_13/source\ti/drivers/lib/gcc/m4/drivers_cc32xx.a(UART2CC32XX.c.obj)
                0x20007834                UART2Support_disableTx
 .text.UART2Support_dmaStartTx
                0x20007840       0xbc D:/EmbeddecSystemsStuff/ticcs1230/simplelink_cc32xx_sdk_7_10_00_13/source\ti/drivers/lib/gcc/m4/drivers_cc32xx.a(UART2CC32XX.c.obj)
                0x20007840                UART2Support_dmaStartTx
 .text.UART2Support_dmaStopRx
                0x200078fc       0x50 D:/EmbeddecSystemsStuff/ticcs1230/simplelink_cc32xx_sdk_7_10_00_13/source\ti/drivers/lib/gcc/m4/drivers_cc32xx.a(UART2CC32XX.c.obj)
                0x200078fc                UART2Support_dmaStopRx
 .text.UART2Support_dmaStartRx
                0x2000794c       0xd4 D:/EmbeddecSystemsStuff/ticcs1230/simplelink_cc32xx_sdk_7_10_00_13/source\ti/drivers/lib/gcc/m4/drivers_cc32xx.a(UART2CC32XX.c.obj)
                0x2000794c                UART2Support_dmaStartRx
 .text.UART2Support_dmaStopTx
                0x20007a20       0x64 D:/EmbeddecSystemsStuff/ticcs1230/simplelink_cc32xx_sdk_7_10_00_13/source\ti/drivers/lib/gcc/m4/drivers_cc32xx.a(UART2CC32XX.c.obj)
                0x20007a20                UART2Support_dmaStopTx
 .text.UART2CC32XX_hwiIntFxn
                0x20007a84      0x2d0 D:/EmbeddecSystemsStuff/ticcs1230/simplelink_cc32xx_sdk_7_10_00_13/source\ti/drivers/lib/gcc/m4/drivers_cc32xx.a(UART2CC32XX.c.obj)
 .text.UART2Support_enableTx
                0x20007d54        0xc D:/EmbeddecSystemsStuff/ticcs1230/simplelink_cc32xx_sdk_7_10_00_13/source\ti/drivers/lib/gcc/m4/drivers_cc32xx.a(UART2CC32XX.c.obj)
                0x20007d54                UART2Support_enableTx
 .text.UART2Support_powerRelConstraint
                0x20007d60        0x8 D:/EmbeddecSystemsStuff/ticcs1230/simplelink_cc32xx_sdk_7_10_00_13/source\ti/drivers/lib/gcc/m4/drivers_cc32xx.a(UART2CC32XX.c.obj)
                0x20007d60                UART2Support_powerRelConstraint
 .text.UART2Support_sendData
                0x20007d68       0x2c D:/EmbeddecSystemsStuff/ticcs1230/simplelink_cc32xx_sdk_7_10_00_13/source\ti/drivers/lib/gcc/m4/drivers_cc32xx.a(UART2CC32XX.c.obj)
                0x20007d68                UART2Support_sendData
 .text.UART2Support_txDone
                0x20007d94       0x10 D:/EmbeddecSystemsStuff/ticcs1230/simplelink_cc32xx_sdk_7_10_00_13/source\ti/drivers/lib/gcc/m4/drivers_cc32xx.a(UART2CC32XX.c.obj)
                0x20007d94                UART2Support_txDone
 .text.List_put
                0x20007da4       0x2c D:/EmbeddecSystemsStuff/ticcs1230/simplelink_cc32xx_sdk_7_10_00_13/source\ti/drivers/lib/gcc/m4/drivers_cc32xx.a(List.c.obj)
                0x20007da4                List_put
 .text.List_remove
                0x20007dd0       0x30 D:/EmbeddecSystemsStuff/ticcs1230/simplelink_cc32xx_sdk_7_10_00_13/source\ti/drivers/lib/gcc/m4/drivers_cc32xx.a(List.c.obj)
                0x20007dd0                List_remove
 .text.RingBuf_construct
                0x20007e00       0x14 D:/EmbeddecSystemsStuff/ticcs1230/simplelink_cc32xx_sdk_7_10_00_13/source\ti/drivers/lib/gcc/m4/drivers_cc32xx.a(RingBuf.c.obj)
                0x20007e00                RingBuf_construct
 .text.RingBuf_getConsume
                0x20007e14       0x30 D:/EmbeddecSystemsStuff/ticcs1230/simplelink_cc32xx_sdk_7_10_00_13/source\ti/drivers/lib/gcc/m4/drivers_cc32xx.a(RingBuf.c.obj)
                0x20007e14                RingBuf_getConsume
 .text.RingBuf_getCount
                0x20007e44        0x4 D:/EmbeddecSystemsStuff/ticcs1230/simplelink_cc32xx_sdk_7_10_00_13/source\ti/drivers/lib/gcc/m4/drivers_cc32xx.a(RingBuf.c.obj)
                0x20007e44                RingBuf_getCount
 .text.RingBuf_getPointer
                0x20007e48       0x28 D:/EmbeddecSystemsStuff/ticcs1230/simplelink_cc32xx_sdk_7_10_00_13/source\ti/drivers/lib/gcc/m4/drivers_cc32xx.a(RingBuf.c.obj)
                0x20007e48                RingBuf_getPointer
 .text.RingBuf_put
                0x20007e70       0x48 D:/EmbeddecSystemsStuff/ticcs1230/simplelink_cc32xx_sdk_7_10_00_13/source\ti/drivers/lib/gcc/m4/drivers_cc32xx.a(RingBuf.c.obj)
                0x20007e70                RingBuf_put
 .text.RingBuf_putAdvance
                0x20007eb8       0x3c D:/EmbeddecSystemsStuff/ticcs1230/simplelink_cc32xx_sdk_7_10_00_13/source\ti/drivers/lib/gcc/m4/drivers_cc32xx.a(RingBuf.c.obj)
                0x20007eb8                RingBuf_putAdvance
 .text.RingBuf_putPointer
                0x20007ef4       0x34 D:/EmbeddecSystemsStuff/ticcs1230/simplelink_cc32xx_sdk_7_10_00_13/source\ti/drivers/lib/gcc/m4/drivers_cc32xx.a(RingBuf.c.obj)
                0x20007ef4                RingBuf_putPointer
 .text.postNotifyFxn
                0x20007f28       0x14 D:/EmbeddecSystemsStuff/ticcs1230/simplelink_cc32xx_sdk_7_10_00_13/source\ti/drivers/lib/gcc/m4/drivers_cc32xx.a(UDMACC32XX.c.obj)
 .text.UDMACC32XX_close
                0x20007f3c       0x40 D:/EmbeddecSystemsStuff/ticcs1230/simplelink_cc32xx_sdk_7_10_00_13/source\ti/drivers/lib/gcc/m4/drivers_cc32xx.a(UDMACC32XX.c.obj)
                0x20007f3c                UDMACC32XX_close
 .text.UDMACC32XX_init
                0x20007f7c       0x40 D:/EmbeddecSystemsStuff/ticcs1230/simplelink_cc32xx_sdk_7_10_00_13/source\ti/drivers/lib/gcc/m4/drivers_cc32xx.a(UDMACC32XX.c.obj)
                0x20007f7c                UDMACC32XX_init
 .text.UDMACC32XX_open
                0x20007fbc       0x70 D:/EmbeddecSystemsStuff/ticcs1230/simplelink_cc32xx_sdk_7_10_00_13/source\ti/drivers/lib/gcc/m4/drivers_cc32xx.a(UDMACC32XX.c.obj)
                0x20007fbc                UDMACC32XX_open
 .text.NoRTOS_start
                0x2000802c        0x4 D:/EmbeddecSystemsStuff/ticcs1230/simplelink_cc32xx_sdk_7_10_00_13/kernel/nortos\lib/gcc/m4/nortos_cc32xx.a(NoRTOS.c.obj)
                0x2000802c                NoRTOS_start
 .text.clkFxn   0x20008030        0x4 D:/EmbeddecSystemsStuff/ticcs1230/simplelink_cc32xx_sdk_7_10_00_13/kernel/nortos\lib/gcc/m4/nortos_cc32xx.a(SemaphoreP_nortos.c.obj)
                0x20008030                clkFxn
 .text.SemaphoreP_constructBinary
                0x20008034       0x3c D:/EmbeddecSystemsStuff/ticcs1230/simplelink_cc32xx_sdk_7_10_00_13/kernel/nortos\lib/gcc/m4/nortos_cc32xx.a(SemaphoreP_nortos.c.obj)
                0x20008034                SemaphoreP_constructBinary
 .text.SemaphoreP_createBinary
                0x20008070       0x40 D:/EmbeddecSystemsStuff/ticcs1230/simplelink_cc32xx_sdk_7_10_00_13/kernel/nortos\lib/gcc/m4/nortos_cc32xx.a(SemaphoreP_nortos.c.obj)
                0x20008070                SemaphoreP_createBinary
 .text.SemaphoreP_destruct
                0x200080b0        0x4 D:/EmbeddecSystemsStuff/ticcs1230/simplelink_cc32xx_sdk_7_10_00_13/kernel/nortos\lib/gcc/m4/nortos_cc32xx.a(SemaphoreP_nortos.c.obj)
                0x200080b0                SemaphoreP_destruct
 .text.SemaphoreP_delete
                0x200080b4        0x4 D:/EmbeddecSystemsStuff/ticcs1230/simplelink_cc32xx_sdk_7_10_00_13/kernel/nortos\lib/gcc/m4/nortos_cc32xx.a(SemaphoreP_nortos.c.obj)
                0x200080b4                SemaphoreP_delete
 .text.SemaphoreP_pend
                0x200080b8       0xfc D:/EmbeddecSystemsStuff/ticcs1230/simplelink_cc32xx_sdk_7_10_00_13/kernel/nortos\lib/gcc/m4/nortos_cc32xx.a(SemaphoreP_nortos.c.obj)
                0x200080b8                SemaphoreP_pend
 .text.SemaphoreP_post
                0x200081b4       0x44 D:/EmbeddecSystemsStuff/ticcs1230/simplelink_cc32xx_sdk_7_10_00_13/kernel/nortos\lib/gcc/m4/nortos_cc32xx.a(SemaphoreP_nortos.c.obj)
                0x200081b4                SemaphoreP_post
 .text.ClockP_sysTickHandler
                0x200081f8       0x7c D:/EmbeddecSystemsStuff/ticcs1230/simplelink_cc32xx_sdk_7_10_00_13/kernel/nortos\lib/gcc/m4/nortos_cc32xx.a(ClockPSysTick_nortos.c.obj)
                0x200081f8                ClockP_sysTickHandler
 .text.ClockP_add
                0x20008274       0x14 D:/EmbeddecSystemsStuff/ticcs1230/simplelink_cc32xx_sdk_7_10_00_13/kernel/nortos\lib/gcc/m4/nortos_cc32xx.a(ClockPSysTick_nortos.c.obj)
                0x20008274                ClockP_add
 .text.ClockP_destruct
                0x20008288       0x44 D:/EmbeddecSystemsStuff/ticcs1230/simplelink_cc32xx_sdk_7_10_00_13/kernel/nortos\lib/gcc/m4/nortos_cc32xx.a(ClockPSysTick_nortos.c.obj)
                0x20008288                ClockP_destruct
 .text.ClockP_doTick
                0x200082cc        0x4 D:/EmbeddecSystemsStuff/ticcs1230/simplelink_cc32xx_sdk_7_10_00_13/kernel/nortos\lib/gcc/m4/nortos_cc32xx.a(ClockPSysTick_nortos.c.obj)
                0x200082cc                ClockP_doTick
 .text.ClockP_getCpuFreq
                0x200082d0       0x10 D:/EmbeddecSystemsStuff/ticcs1230/simplelink_cc32xx_sdk_7_10_00_13/kernel/nortos\lib/gcc/m4/nortos_cc32xx.a(ClockPSysTick_nortos.c.obj)
                0x200082d0                ClockP_getCpuFreq
 .text.ClockP_getSystemTicks
                0x200082e0       0x70 D:/EmbeddecSystemsStuff/ticcs1230/simplelink_cc32xx_sdk_7_10_00_13/kernel/nortos\lib/gcc/m4/nortos_cc32xx.a(ClockPSysTick_nortos.c.obj)
                0x200082e0                ClockP_getSystemTicks
 .text.ClockP_getTicksUntilInterrupt
                0x20008350       0x40 D:/EmbeddecSystemsStuff/ticcs1230/simplelink_cc32xx_sdk_7_10_00_13/kernel/nortos\lib/gcc/m4/nortos_cc32xx.a(ClockPSysTick_nortos.c.obj)
                0x20008350                ClockP_getTicksUntilInterrupt
 .text.ClockP_isActive
                0x20008390        0xc D:/EmbeddecSystemsStuff/ticcs1230/simplelink_cc32xx_sdk_7_10_00_13/kernel/nortos\lib/gcc/m4/nortos_cc32xx.a(ClockPSysTick_nortos.c.obj)
                0x20008390                ClockP_isActive
 .text.ClockP_setTicks
                0x2000839c       0x10 D:/EmbeddecSystemsStuff/ticcs1230/simplelink_cc32xx_sdk_7_10_00_13/kernel/nortos\lib/gcc/m4/nortos_cc32xx.a(ClockPSysTick_nortos.c.obj)
                0x2000839c                ClockP_setTicks
 .text.ClockP_start
                0x200083ac       0xa8 D:/EmbeddecSystemsStuff/ticcs1230/simplelink_cc32xx_sdk_7_10_00_13/kernel/nortos\lib/gcc/m4/nortos_cc32xx.a(ClockPSysTick_nortos.c.obj)
                0x200083ac                ClockP_start
 .text.ClockP_startup
                0x20008454       0x68 D:/EmbeddecSystemsStuff/ticcs1230/simplelink_cc32xx_sdk_7_10_00_13/kernel/nortos\lib/gcc/m4/nortos_cc32xx.a(ClockPSysTick_nortos.c.obj)
                0x20008454                ClockP_startup
 .text.HwiP_dispatch
                0x200084bc       0x1c D:/EmbeddecSystemsStuff/ticcs1230/simplelink_cc32xx_sdk_7_10_00_13/kernel/nortos\lib/gcc/m4/nortos_cc32xx.a(HwiPCC32XX_nortos.c.obj)
                0x200084bc                HwiP_dispatch
 .text.HwiP_enable
                0x200084d8        0x4 D:/EmbeddecSystemsStuff/ticcs1230/simplelink_cc32xx_sdk_7_10_00_13/kernel/nortos\lib/gcc/m4/nortos_cc32xx.a(HwiPCC32XX_nortos.c.obj)
                0x200084d8                HwiP_enable
 .text.HwiP_disable
                0x200084dc        0x8 D:/EmbeddecSystemsStuff/ticcs1230/simplelink_cc32xx_sdk_7_10_00_13/kernel/nortos\lib/gcc/m4/nortos_cc32xx.a(HwiPCC32XX_nortos.c.obj)
                0x200084dc                HwiP_disable
 .text.HwiP_restore
                0x200084e4        0x8 D:/EmbeddecSystemsStuff/ticcs1230/simplelink_cc32xx_sdk_7_10_00_13/kernel/nortos\lib/gcc/m4/nortos_cc32xx.a(HwiPCC32XX_nortos.c.obj)
                0x200084e4                HwiP_restore
 .text.HwiP_clearInterrupt
                0x200084ec        0x4 D:/EmbeddecSystemsStuff/ticcs1230/simplelink_cc32xx_sdk_7_10_00_13/kernel/nortos\lib/gcc/m4/nortos_cc32xx.a(HwiPCC32XX_nortos.c.obj)
                0x200084ec                HwiP_clearInterrupt
 .text.HwiP_destruct
                0x200084f0       0x14 D:/EmbeddecSystemsStuff/ticcs1230/simplelink_cc32xx_sdk_7_10_00_13/kernel/nortos\lib/gcc/m4/nortos_cc32xx.a(HwiPCC32XX_nortos.c.obj)
                0x200084f0                HwiP_destruct
 .text.HwiP_delete
                0x20008504       0x1c D:/EmbeddecSystemsStuff/ticcs1230/simplelink_cc32xx_sdk_7_10_00_13/kernel/nortos\lib/gcc/m4/nortos_cc32xx.a(HwiPCC32XX_nortos.c.obj)
                0x20008504                HwiP_delete
 .text.HwiP_disableInterrupt
                0x20008520        0x4 D:/EmbeddecSystemsStuff/ticcs1230/simplelink_cc32xx_sdk_7_10_00_13/kernel/nortos\lib/gcc/m4/nortos_cc32xx.a(HwiPCC32XX_nortos.c.obj)
                0x20008520                HwiP_disableInterrupt
 .text.HwiP_enableInterrupt
                0x20008524        0x4 D:/EmbeddecSystemsStuff/ticcs1230/simplelink_cc32xx_sdk_7_10_00_13/kernel/nortos\lib/gcc/m4/nortos_cc32xx.a(HwiPCC32XX_nortos.c.obj)
                0x20008524                HwiP_enableInterrupt
 .text.HwiP_interruptsEnabled
                0x20008528       0x10 D:/EmbeddecSystemsStuff/ticcs1230/simplelink_cc32xx_sdk_7_10_00_13/kernel/nortos\lib/gcc/m4/nortos_cc32xx.a(HwiPCC32XX_nortos.c.obj)
                0x20008528                HwiP_interruptsEnabled
 .text.HwiP_construct
                0x20008538       0x8c D:/EmbeddecSystemsStuff/ticcs1230/simplelink_cc32xx_sdk_7_10_00_13/kernel/nortos\lib/gcc/m4/nortos_cc32xx.a(HwiPCC32XX_nortos.c.obj)
                0x20008538                HwiP_construct
 .text.HwiP_create
                0x200085c4       0x90 D:/EmbeddecSystemsStuff/ticcs1230/simplelink_cc32xx_sdk_7_10_00_13/kernel/nortos\lib/gcc/m4/nortos_cc32xx.a(HwiPCC32XX_nortos.c.obj)
                0x200085c4                HwiP_create
 .text.HwiP_Params_init
                0x20008654       0x14 D:/EmbeddecSystemsStuff/ticcs1230/simplelink_cc32xx_sdk_7_10_00_13/kernel/nortos\lib/gcc/m4/nortos_cc32xx.a(HwiPCC32XX_nortos.c.obj)
                0x20008654                HwiP_Params_init
 .text.HwiP_post
                0x20008668        0x4 D:/EmbeddecSystemsStuff/ticcs1230/simplelink_cc32xx_sdk_7_10_00_13/kernel/nortos\lib/gcc/m4/nortos_cc32xx.a(HwiPCC32XX_nortos.c.obj)
                0x20008668                HwiP_post
 .text.HwiP_inISR
                0x2000866c       0x10 D:/EmbeddecSystemsStuff/ticcs1230/simplelink_cc32xx_sdk_7_10_00_13/kernel/nortos\lib/gcc/m4/nortos_cc32xx.a(HwiPCC32XX_nortos.c.obj)
                0x2000866c                HwiP_inISR
 .text.PowerCC32XX_initPolicy
                0x2000867c        0x4 D:/EmbeddecSystemsStuff/ticcs1230/simplelink_cc32xx_sdk_7_10_00_13/kernel/nortos\lib/gcc/m4/nortos_cc32xx.a(PowerCC32XX_nortos.c.obj)
                0x2000867c                PowerCC32XX_initPolicy
 .text.PowerCC32XX_sleepPolicy
                0x20008680      0x220 D:/EmbeddecSystemsStuff/ticcs1230/simplelink_cc32xx_sdk_7_10_00_13/kernel/nortos\lib/gcc/m4/nortos_cc32xx.a(PowerCC32XX_nortos.c.obj)
                0x20008680                PowerCC32XX_sleepPolicy
 .text.nmiISR   0x200088a0        0x4 D:/EmbeddecSystemsStuff/ticcs1230/simplelink_cc32xx_sdk_7_10_00_13/kernel/nortos\lib/gcc/m4/nortos_cc32xx.a(startup_cc32xx_gcc.c.obj)
 .text.faultISR
                0x200088a4        0x4 D:/EmbeddecSystemsStuff/ticcs1230/simplelink_cc32xx_sdk_7_10_00_13/kernel/nortos\lib/gcc/m4/nortos_cc32xx.a(startup_cc32xx_gcc.c.obj)
 .text.busFaultHandler
                0x200088a8        0x4 D:/EmbeddecSystemsStuff/ticcs1230/simplelink_cc32xx_sdk_7_10_00_13/kernel/nortos\lib/gcc/m4/nortos_cc32xx.a(startup_cc32xx_gcc.c.obj)
 .text.defaultHandler
                0x200088ac        0x4 D:/EmbeddecSystemsStuff/ticcs1230/simplelink_cc32xx_sdk_7_10_00_13/kernel/nortos\lib/gcc/m4/nortos_cc32xx.a(startup_cc32xx_gcc.c.obj)
 .text.resetISR
                0x200088b0       0x14 D:/EmbeddecSystemsStuff/ticcs1230/simplelink_cc32xx_sdk_7_10_00_13/kernel/nortos\lib/gcc/m4/nortos_cc32xx.a(startup_cc32xx_gcc.c.obj)
                0x200088b0                resetISR
 .text.localProgramStart
                0x200088c4       0xc4 D:/EmbeddecSystemsStuff/ticcs1230/simplelink_cc32xx_sdk_7_10_00_13/kernel/nortos\lib/gcc/m4/nortos_cc32xx.a(startup_cc32xx_gcc.c.obj)
                0x200088c4                localProgramStart
 .text._fini    0x20008988        0x4 D:/EmbeddecSystemsStuff/ticcs1230/simplelink_cc32xx_sdk_7_10_00_13/kernel/nortos\lib/gcc/m4/nortos_cc32xx.a(startup_cc32xx_gcc.c.obj)
                0x20008988                _fini
 .text.SwiP_disable
                0x2000898c       0x1c D:/EmbeddecSystemsStuff/ticcs1230/simplelink_cc32xx_sdk_7_10_00_13/kernel/nortos\lib/gcc/m4/nortos_cc32xx.a(SwiP_nortos.c.obj)
                0x2000898c                SwiP_disable
 .text.SwiP_restore
                0x200089a8       0x48 D:/EmbeddecSystemsStuff/ticcs1230/simplelink_cc32xx_sdk_7_10_00_13/kernel/nortos\lib/gcc/m4/nortos_cc32xx.a(SwiP_nortos.c.obj)
                0x200089a8                SwiP_restore
 .text.CPUcpsid
                0x200089f0       0x16 D:/EmbeddecSystemsStuff/ticcs1230/simplelink_cc32xx_sdk_7_10_00_13/source\ti/devices/cc32xx/driverlib/gcc/Release/driverlib.a(cpu.obj)
                0x200089f0                CPUcpsid
 .text.CPUprimask
                0x20008a06        0xc D:/EmbeddecSystemsStuff/ticcs1230/simplelink_cc32xx_sdk_7_10_00_13/source\ti/devices/cc32xx/driverlib/gcc/Release/driverlib.a(cpu.obj)
                0x20008a06                CPUprimask
 .text.CPUcpsie
                0x20008a12       0x16 D:/EmbeddecSystemsStuff/ticcs1230/simplelink_cc32xx_sdk_7_10_00_13/source\ti/devices/cc32xx/driverlib/gcc/Release/driverlib.a(cpu.obj)
                0x20008a12                CPUcpsie
 .text.CPUwfi   0x20008a28        0xe D:/EmbeddecSystemsStuff/ticcs1230/simplelink_cc32xx_sdk_7_10_00_13/source\ti/devices/cc32xx/driverlib/gcc/Release/driverlib.a(cpu.obj)
                0x20008a28                CPUwfi
 .text.GPIODirModeSet
                0x20008a36       0x46 D:/EmbeddecSystemsStuff/ticcs1230/simplelink_cc32xx_sdk_7_10_00_13/source\ti/devices/cc32xx/driverlib/gcc/Release/driverlib.a(gpio.obj)
                0x20008a36                GPIODirModeSet
 .text.GPIOIntTypeSet
                0x20008a7c       0xa2 D:/EmbeddecSystemsStuff/ticcs1230/simplelink_cc32xx_sdk_7_10_00_13/source\ti/devices/cc32xx/driverlib/gcc/Release/driverlib.a(gpio.obj)
                0x20008a7c                GPIOIntTypeSet
 .text.GPIOIntEnable
                0x20008b1e       0x2a D:/EmbeddecSystemsStuff/ticcs1230/simplelink_cc32xx_sdk_7_10_00_13/source\ti/devices/cc32xx/driverlib/gcc/Release/driverlib.a(gpio.obj)
                0x20008b1e                GPIOIntEnable
 .text.GPIOIntDisable
                0x20008b48       0x2a D:/EmbeddecSystemsStuff/ticcs1230/simplelink_cc32xx_sdk_7_10_00_13/source\ti/devices/cc32xx/driverlib/gcc/Release/driverlib.a(gpio.obj)
                0x20008b48                GPIOIntDisable
 .text.GPIOIntStatus
                0x20008b72       0x2e D:/EmbeddecSystemsStuff/ticcs1230/simplelink_cc32xx_sdk_7_10_00_13/source\ti/devices/cc32xx/driverlib/gcc/Release/driverlib.a(gpio.obj)
                0x20008b72                GPIOIntStatus
 .text.GPIOIntClear
                0x20008ba0       0x20 D:/EmbeddecSystemsStuff/ticcs1230/simplelink_cc32xx_sdk_7_10_00_13/source\ti/devices/cc32xx/driverlib/gcc/Release/driverlib.a(gpio.obj)
                0x20008ba0                GPIOIntClear
 .text.GPIOPinWrite
                0x20008bc0       0x2a D:/EmbeddecSystemsStuff/ticcs1230/simplelink_cc32xx_sdk_7_10_00_13/source\ti/devices/cc32xx/driverlib/gcc/Release/driverlib.a(gpio.obj)
                0x20008bc0                GPIOPinWrite
 *fill*         0x20008bea        0x2 
 .text.I2CMasterInitExpClk
                0x20008bec       0x9c D:/EmbeddecSystemsStuff/ticcs1230/simplelink_cc32xx_sdk_7_10_00_13/source\ti/devices/cc32xx/driverlib/gcc/Release/driverlib.a(i2c.obj)
                0x20008bec                I2CMasterInitExpClk
 .text.I2CMasterEnable
                0x20008c88       0x22 D:/EmbeddecSystemsStuff/ticcs1230/simplelink_cc32xx_sdk_7_10_00_13/source\ti/devices/cc32xx/driverlib/gcc/Release/driverlib.a(i2c.obj)
                0x20008c88                I2CMasterEnable
 .text.I2CMasterDisable
                0x20008caa       0x22 D:/EmbeddecSystemsStuff/ticcs1230/simplelink_cc32xx_sdk_7_10_00_13/source\ti/devices/cc32xx/driverlib/gcc/Release/driverlib.a(i2c.obj)
                0x20008caa                I2CMasterDisable
 .text.I2CMasterIntEnableEx
                0x20008ccc       0x26 D:/EmbeddecSystemsStuff/ticcs1230/simplelink_cc32xx_sdk_7_10_00_13/source\ti/devices/cc32xx/driverlib/gcc/Release/driverlib.a(i2c.obj)
                0x20008ccc                I2CMasterIntEnableEx
 .text.I2CMasterIntDisableEx
                0x20008cf2       0x26 D:/EmbeddecSystemsStuff/ticcs1230/simplelink_cc32xx_sdk_7_10_00_13/source\ti/devices/cc32xx/driverlib/gcc/Release/driverlib.a(i2c.obj)
                0x20008cf2                I2CMasterIntDisableEx
 .text.I2CMasterIntStatusEx
                0x20008d18       0x2a D:/EmbeddecSystemsStuff/ticcs1230/simplelink_cc32xx_sdk_7_10_00_13/source\ti/devices/cc32xx/driverlib/gcc/Release/driverlib.a(i2c.obj)
                0x20008d18                I2CMasterIntStatusEx
 .text.I2CMasterIntClearEx
                0x20008d42       0x1e D:/EmbeddecSystemsStuff/ticcs1230/simplelink_cc32xx_sdk_7_10_00_13/source\ti/devices/cc32xx/driverlib/gcc/Release/driverlib.a(i2c.obj)
                0x20008d42                I2CMasterIntClearEx
 .text.I2CMasterSlaveAddrSet
                0x20008d60       0x26 D:/EmbeddecSystemsStuff/ticcs1230/simplelink_cc32xx_sdk_7_10_00_13/source\ti/devices/cc32xx/driverlib/gcc/Release/driverlib.a(i2c.obj)
                0x20008d60                I2CMasterSlaveAddrSet
 .text.I2CMasterBusBusy
                0x20008d86       0x26 D:/EmbeddecSystemsStuff/ticcs1230/simplelink_cc32xx_sdk_7_10_00_13/source\ti/devices/cc32xx/driverlib/gcc/Release/driverlib.a(i2c.obj)
                0x20008d86                I2CMasterBusBusy
 .text.I2CMasterControl
                0x20008dac       0x1e D:/EmbeddecSystemsStuff/ticcs1230/simplelink_cc32xx_sdk_7_10_00_13/source\ti/devices/cc32xx/driverlib/gcc/Release/driverlib.a(i2c.obj)
                0x20008dac                I2CMasterControl
 .text.I2CMasterTimeoutSet
                0x20008dca       0x1e D:/EmbeddecSystemsStuff/ticcs1230/simplelink_cc32xx_sdk_7_10_00_13/source\ti/devices/cc32xx/driverlib/gcc/Release/driverlib.a(i2c.obj)
                0x20008dca                I2CMasterTimeoutSet
 .text.I2CTxFIFOConfigSet
                0x20008de8       0x3e D:/EmbeddecSystemsStuff/ticcs1230/simplelink_cc32xx_sdk_7_10_00_13/source\ti/devices/cc32xx/driverlib/gcc/Release/driverlib.a(i2c.obj)
                0x20008de8                I2CTxFIFOConfigSet
 .text.I2CTxFIFOFlush
                0x20008e26       0x26 D:/EmbeddecSystemsStuff/ticcs1230/simplelink_cc32xx_sdk_7_10_00_13/source\ti/devices/cc32xx/driverlib/gcc/Release/driverlib.a(i2c.obj)
                0x20008e26                I2CTxFIFOFlush
 .text.I2CRxFIFOConfigSet
                0x20008e4c       0x3e D:/EmbeddecSystemsStuff/ticcs1230/simplelink_cc32xx_sdk_7_10_00_13/source\ti/devices/cc32xx/driverlib/gcc/Release/driverlib.a(i2c.obj)
                0x20008e4c                I2CRxFIFOConfigSet
 .text.I2CRxFIFOFlush
                0x20008e8a       0x26 D:/EmbeddecSystemsStuff/ticcs1230/simplelink_cc32xx_sdk_7_10_00_13/source\ti/devices/cc32xx/driverlib/gcc/Release/driverlib.a(i2c.obj)
                0x20008e8a                I2CRxFIFOFlush
 .text.I2CFIFOStatus
                0x20008eb0       0x1a D:/EmbeddecSystemsStuff/ticcs1230/simplelink_cc32xx_sdk_7_10_00_13/source\ti/devices/cc32xx/driverlib/gcc/Release/driverlib.a(i2c.obj)
                0x20008eb0                I2CFIFOStatus
 .text.I2CFIFODataPutNonBlocking
                0x20008eca       0x38 D:/EmbeddecSystemsStuff/ticcs1230/simplelink_cc32xx_sdk_7_10_00_13/source\ti/devices/cc32xx/driverlib/gcc/Release/driverlib.a(i2c.obj)
                0x20008eca                I2CFIFODataPutNonBlocking
 .text.I2CFIFODataGetNonBlocking
                0x20008f02       0x38 D:/EmbeddecSystemsStuff/ticcs1230/simplelink_cc32xx_sdk_7_10_00_13/source\ti/devices/cc32xx/driverlib/gcc/Release/driverlib.a(i2c.obj)
                0x20008f02                I2CFIFODataGetNonBlocking
 .text.I2CMasterBurstLengthSet
                0x20008f3a       0x20 D:/EmbeddecSystemsStuff/ticcs1230/simplelink_cc32xx_sdk_7_10_00_13/source\ti/devices/cc32xx/driverlib/gcc/Release/driverlib.a(i2c.obj)
                0x20008f3a                I2CMasterBurstLengthSet
 .text.IntDefaultHandler
                0x20008f5a        0x6 D:/EmbeddecSystemsStuff/ticcs1230/simplelink_cc32xx_sdk_7_10_00_13/source\ti/devices/cc32xx/driverlib/gcc/Release/driverlib.a(interrupt.obj)
 .text.IntMasterEnable
                0x20008f60       0x10 D:/EmbeddecSystemsStuff/ticcs1230/simplelink_cc32xx_sdk_7_10_00_13/source\ti/devices/cc32xx/driverlib/gcc/Release/driverlib.a(interrupt.obj)
                0x20008f60                IntMasterEnable
 .text.IntMasterDisable
                0x20008f70       0x10 D:/EmbeddecSystemsStuff/ticcs1230/simplelink_cc32xx_sdk_7_10_00_13/source\ti/devices/cc32xx/driverlib/gcc/Release/driverlib.a(interrupt.obj)
                0x20008f70                IntMasterDisable
 .text.IntVTableBaseSet
                0x20008f80       0x1c D:/EmbeddecSystemsStuff/ticcs1230/simplelink_cc32xx_sdk_7_10_00_13/source\ti/devices/cc32xx/driverlib/gcc/Release/driverlib.a(interrupt.obj)
                0x20008f80                IntVTableBaseSet
 .text.IntRegister
                0x20008f9c       0x2c D:/EmbeddecSystemsStuff/ticcs1230/simplelink_cc32xx_sdk_7_10_00_13/source\ti/devices/cc32xx/driverlib/gcc/Release/driverlib.a(interrupt.obj)
                0x20008f9c                IntRegister
 .text.IntUnregister
                0x20008fc8       0x2c D:/EmbeddecSystemsStuff/ticcs1230/simplelink_cc32xx_sdk_7_10_00_13/source\ti/devices/cc32xx/driverlib/gcc/Release/driverlib.a(interrupt.obj)
                0x20008fc8                IntUnregister
 .text.IntPrioritySet
                0x20008ff4       0x68 D:/EmbeddecSystemsStuff/ticcs1230/simplelink_cc32xx_sdk_7_10_00_13/source\ti/devices/cc32xx/driverlib/gcc/Release/driverlib.a(interrupt.obj)
                0x20008ff4                IntPrioritySet
 .text.IntEnable
                0x2000905c       0xbc D:/EmbeddecSystemsStuff/ticcs1230/simplelink_cc32xx_sdk_7_10_00_13/source\ti/devices/cc32xx/driverlib/gcc/Release/driverlib.a(interrupt.obj)
                0x2000905c                IntEnable
 .text.IntDisable
                0x20009118       0xbc D:/EmbeddecSystemsStuff/ticcs1230/simplelink_cc32xx_sdk_7_10_00_13/source\ti/devices/cc32xx/driverlib/gcc/Release/driverlib.a(interrupt.obj)
                0x20009118                IntDisable
 .text.IntPendSet
                0x200091d4       0x9c D:/EmbeddecSystemsStuff/ticcs1230/simplelink_cc32xx_sdk_7_10_00_13/source\ti/devices/cc32xx/driverlib/gcc/Release/driverlib.a(interrupt.obj)
                0x200091d4                IntPendSet
 .text.IntPendClear
                0x20009270       0x68 D:/EmbeddecSystemsStuff/ticcs1230/simplelink_cc32xx_sdk_7_10_00_13/source\ti/devices/cc32xx/driverlib/gcc/Release/driverlib.a(interrupt.obj)
                0x20009270                IntPendClear
 .text.PinModeSet
                0x200092d8       0x48 D:/EmbeddecSystemsStuff/ticcs1230/simplelink_cc32xx_sdk_7_10_00_13/source\ti/devices/cc32xx/driverlib/gcc/Release/driverlib.a(pin.obj)
                0x200092d8                PinModeSet
 .text.PinModeGet
                0x20009320       0x3c D:/EmbeddecSystemsStuff/ticcs1230/simplelink_cc32xx_sdk_7_10_00_13/source\ti/devices/cc32xx/driverlib/gcc/Release/driverlib.a(pin.obj)
                0x20009320                PinModeGet
 .text.PinDirModeSet
                0x2000935c       0x44 D:/EmbeddecSystemsStuff/ticcs1230/simplelink_cc32xx_sdk_7_10_00_13/source\ti/devices/cc32xx/driverlib/gcc/Release/driverlib.a(pin.obj)
                0x2000935c                PinDirModeSet
 .text.PinDirModeGet
                0x200093a0       0x3c D:/EmbeddecSystemsStuff/ticcs1230/simplelink_cc32xx_sdk_7_10_00_13/source\ti/devices/cc32xx/driverlib/gcc/Release/driverlib.a(pin.obj)
                0x200093a0                PinDirModeGet
 .text.PinConfigGet
                0x200093dc       0x50 D:/EmbeddecSystemsStuff/ticcs1230/simplelink_cc32xx_sdk_7_10_00_13/source\ti/devices/cc32xx/driverlib/gcc/Release/driverlib.a(pin.obj)
                0x200093dc                PinConfigGet
 .text.PinConfigSet
                0x2000942c       0x9c D:/EmbeddecSystemsStuff/ticcs1230/simplelink_cc32xx_sdk_7_10_00_13/source\ti/devices/cc32xx/driverlib/gcc/Release/driverlib.a(pin.obj)
                0x2000942c                PinConfigSet
 .text.PinTypeUART
                0x200094c8       0x24 D:/EmbeddecSystemsStuff/ticcs1230/simplelink_cc32xx_sdk_7_10_00_13/source\ti/devices/cc32xx/driverlib/gcc/Release/driverlib.a(pin.obj)
                0x200094c8                PinTypeUART
 .text.PinTypeI2C
                0x200094ec       0x26 D:/EmbeddecSystemsStuff/ticcs1230/simplelink_cc32xx_sdk_7_10_00_13/source\ti/devices/cc32xx/driverlib/gcc/Release/driverlib.a(pin.obj)
                0x200094ec                PinTypeI2C
 *fill*         0x20009512        0x2 
 .text.PinLockLevelSet
                0x20009514       0x68 D:/EmbeddecSystemsStuff/ticcs1230/simplelink_cc32xx_sdk_7_10_00_13/source\ti/devices/cc32xx/driverlib/gcc/Release/driverlib.a(pin.obj)
                0x20009514                PinLockLevelSet
 .text.PinLock  0x2000957c       0x40 D:/EmbeddecSystemsStuff/ticcs1230/simplelink_cc32xx_sdk_7_10_00_13/source\ti/devices/cc32xx/driverlib/gcc/Release/driverlib.a(pin.obj)
                0x2000957c                PinLock
 .text.PinUnlock
                0x200095bc       0x2c D:/EmbeddecSystemsStuff/ticcs1230/simplelink_cc32xx_sdk_7_10_00_13/source\ti/devices/cc32xx/driverlib/gcc/Release/driverlib.a(pin.obj)
                0x200095bc                PinUnlock
 .text.PinToPadGet
                0x200095e8       0x24 D:/EmbeddecSystemsStuff/ticcs1230/simplelink_cc32xx_sdk_7_10_00_13/source\ti/devices/cc32xx/driverlib/gcc/Release/driverlib.a(pin.obj)
                0x200095e8                PinToPadGet
 .text.PRCMSysResetCauseGet
                0x2000960c       0x78 D:/EmbeddecSystemsStuff/ticcs1230/simplelink_cc32xx_sdk_7_10_00_13/source\ti/devices/cc32xx/driverlib/gcc/Release/driverlib.a(prcm.obj)
                0x2000960c                PRCMSysResetCauseGet
 .text.PRCMPeripheralClkEnable
                0x20009684       0x6c D:/EmbeddecSystemsStuff/ticcs1230/simplelink_cc32xx_sdk_7_10_00_13/source\ti/devices/cc32xx/driverlib/gcc/Release/driverlib.a(prcm.obj)
                0x20009684                PRCMPeripheralClkEnable
 .text.PRCMPeripheralClkDisable
                0x200096f0       0x48 D:/EmbeddecSystemsStuff/ticcs1230/simplelink_cc32xx_sdk_7_10_00_13/source\ti/devices/cc32xx/driverlib/gcc/Release/driverlib.a(prcm.obj)
                0x200096f0                PRCMPeripheralClkDisable
 .text.PRCMPeripheralReset
                0x20009738       0x8c D:/EmbeddecSystemsStuff/ticcs1230/simplelink_cc32xx_sdk_7_10_00_13/source\ti/devices/cc32xx/driverlib/gcc/Release/driverlib.a(prcm.obj)
                0x20009738                PRCMPeripheralReset
 .text.PRCMPeripheralStatusGet
                0x200097c4       0x40 D:/EmbeddecSystemsStuff/ticcs1230/simplelink_cc32xx_sdk_7_10_00_13/source\ti/devices/cc32xx/driverlib/gcc/Release/driverlib.a(prcm.obj)
                0x200097c4                PRCMPeripheralStatusGet
 .text.PRCMLPDSRestoreInfoSet
                0x20009804       0x50 D:/EmbeddecSystemsStuff/ticcs1230/simplelink_cc32xx_sdk_7_10_00_13/source\ti/devices/cc32xx/driverlib/gcc/Release/driverlib.a(prcm.obj)
                0x20009804                PRCMLPDSRestoreInfoSet
 .text.PRCMLPDSEnter
                0x20009854       0x50 D:/EmbeddecSystemsStuff/ticcs1230/simplelink_cc32xx_sdk_7_10_00_13/source\ti/devices/cc32xx/driverlib/gcc/Release/driverlib.a(prcm.obj)
                0x20009854                PRCMLPDSEnter
 .text.PRCMLPDSEnterKeepDebugIf
                0x200098a4       0x40 D:/EmbeddecSystemsStuff/ticcs1230/simplelink_cc32xx_sdk_7_10_00_13/source\ti/devices/cc32xx/driverlib/gcc/Release/driverlib.a(prcm.obj)
                0x200098a4                PRCMLPDSEnterKeepDebugIf
 .text.PRCMLPDSWakeupSourceEnable
                0x200098e4       0x30 D:/EmbeddecSystemsStuff/ticcs1230/simplelink_cc32xx_sdk_7_10_00_13/source\ti/devices/cc32xx/driverlib/gcc/Release/driverlib.a(prcm.obj)
                0x200098e4                PRCMLPDSWakeupSourceEnable
 .text.PRCMLPDSWakeupSourceDisable
                0x20009914       0x24 D:/EmbeddecSystemsStuff/ticcs1230/simplelink_cc32xx_sdk_7_10_00_13/source\ti/devices/cc32xx/driverlib/gcc/Release/driverlib.a(prcm.obj)
                0x20009914                PRCMLPDSWakeupSourceDisable
 .text.PRCMLPDSWakeupCauseGet
                0x20009938       0x14 D:/EmbeddecSystemsStuff/ticcs1230/simplelink_cc32xx_sdk_7_10_00_13/source\ti/devices/cc32xx/driverlib/gcc/Release/driverlib.a(prcm.obj)
                0x20009938                PRCMLPDSWakeupCauseGet
 .text.PRCMLPDSIntervalSet
                0x2000994c       0x34 D:/EmbeddecSystemsStuff/ticcs1230/simplelink_cc32xx_sdk_7_10_00_13/source\ti/devices/cc32xx/driverlib/gcc/Release/driverlib.a(prcm.obj)
                0x2000994c                PRCMLPDSIntervalSet
 .text.PRCMLPDSWakeUpGPIOSelect
                0x20009980       0x2c D:/EmbeddecSystemsStuff/ticcs1230/simplelink_cc32xx_sdk_7_10_00_13/source\ti/devices/cc32xx/driverlib/gcc/Release/driverlib.a(prcm.obj)
                0x20009980                PRCMLPDSWakeUpGPIOSelect
 .text.PRCMSleepEnter
                0x200099ac        0xc D:/EmbeddecSystemsStuff/ticcs1230/simplelink_cc32xx_sdk_7_10_00_13/source\ti/devices/cc32xx/driverlib/gcc/Release/driverlib.a(prcm.obj)
                0x200099ac                PRCMSleepEnter
 .text.PRCMSRAMRetentionEnable
                0x200099b8       0x2c D:/EmbeddecSystemsStuff/ticcs1230/simplelink_cc32xx_sdk_7_10_00_13/source\ti/devices/cc32xx/driverlib/gcc/Release/driverlib.a(prcm.obj)
                0x200099b8                PRCMSRAMRetentionEnable
 .text.PRCMHibernateWakeupSourceEnable
                0x200099e4       0x50 D:/EmbeddecSystemsStuff/ticcs1230/simplelink_cc32xx_sdk_7_10_00_13/source\ti/devices/cc32xx/driverlib/gcc/Release/driverlib.a(prcm.obj)
                0x200099e4                PRCMHibernateWakeupSourceEnable
 .text.PRCMHibernateWakeupSourceDisable
                0x20009a34       0x54 D:/EmbeddecSystemsStuff/ticcs1230/simplelink_cc32xx_sdk_7_10_00_13/source\ti/devices/cc32xx/driverlib/gcc/Release/driverlib.a(prcm.obj)
                0x20009a34                PRCMHibernateWakeupSourceDisable
 .text.PRCMHibernateWakeUpGPIOSelect
                0x20009a88       0x74 D:/EmbeddecSystemsStuff/ticcs1230/simplelink_cc32xx_sdk_7_10_00_13/source\ti/devices/cc32xx/driverlib/gcc/Release/driverlib.a(prcm.obj)
                0x20009a88                PRCMHibernateWakeUpGPIOSelect
 .text.PRCMSlowClkCtrFastGet
                0x20009afc       0x5c D:/EmbeddecSystemsStuff/ticcs1230/simplelink_cc32xx_sdk_7_10_00_13/source\ti/devices/cc32xx/driverlib/gcc/Release/driverlib.a(prcm.obj)
                0x20009afc                PRCMSlowClkCtrFastGet
 .text.PRCMIntEnable
                0x20009b58       0x48 D:/EmbeddecSystemsStuff/ticcs1230/simplelink_cc32xx_sdk_7_10_00_13/source\ti/devices/cc32xx/driverlib/gcc/Release/driverlib.a(prcm.obj)
                0x20009b58                PRCMIntEnable
 .text.PRCMCC3200MCUInit
                0x20009ba0      0x478 D:/EmbeddecSystemsStuff/ticcs1230/simplelink_cc32xx_sdk_7_10_00_13/source\ti/devices/cc32xx/driverlib/gcc/Release/driverlib.a(prcm.obj)
                0x20009ba0                PRCMCC3200MCUInit
 .text.PRCMHIBRegRead
                0x2000a018       0x20 D:/EmbeddecSystemsStuff/ticcs1230/simplelink_cc32xx_sdk_7_10_00_13/source\ti/devices/cc32xx/driverlib/gcc/Release/driverlib.a(prcm.obj)
                0x2000a018                PRCMHIBRegRead
 .text.PRCMHIBRegWrite
                0x2000a038       0x20 D:/EmbeddecSystemsStuff/ticcs1230/simplelink_cc32xx_sdk_7_10_00_13/source\ti/devices/cc32xx/driverlib/gcc/Release/driverlib.a(prcm.obj)
                0x2000a038                PRCMHIBRegWrite
 .text.SysTickEnable
                0x2000a058       0x1c D:/EmbeddecSystemsStuff/ticcs1230/simplelink_cc32xx_sdk_7_10_00_13/source\ti/devices/cc32xx/driverlib/gcc/Release/driverlib.a(systick.obj)
                0x2000a058                SysTickEnable
 .text.SysTickIntEnable
                0x2000a074       0x1c D:/EmbeddecSystemsStuff/ticcs1230/simplelink_cc32xx_sdk_7_10_00_13/source\ti/devices/cc32xx/driverlib/gcc/Release/driverlib.a(systick.obj)
                0x2000a074                SysTickIntEnable
 .text.SysTickIntDisable
                0x2000a090       0x1c D:/EmbeddecSystemsStuff/ticcs1230/simplelink_cc32xx_sdk_7_10_00_13/source\ti/devices/cc32xx/driverlib/gcc/Release/driverlib.a(systick.obj)
                0x2000a090                SysTickIntDisable
 .text.SysTickPeriodSet
                0x2000a0ac       0x20 D:/EmbeddecSystemsStuff/ticcs1230/simplelink_cc32xx_sdk_7_10_00_13/source\ti/devices/cc32xx/driverlib/gcc/Release/driverlib.a(systick.obj)
                0x2000a0ac                SysTickPeriodSet
 .text.TimerEnable
                0x2000a0cc       0x2a D:/EmbeddecSystemsStuff/ticcs1230/simplelink_cc32xx_sdk_7_10_00_13/source\ti/devices/cc32xx/driverlib/gcc/Release/driverlib.a(timer.obj)
                0x2000a0cc                TimerEnable
 .text.TimerDisable
                0x2000a0f6       0x2c D:/EmbeddecSystemsStuff/ticcs1230/simplelink_cc32xx_sdk_7_10_00_13/source\ti/devices/cc32xx/driverlib/gcc/Release/driverlib.a(timer.obj)
                0x2000a0f6                TimerDisable
 .text.TimerControlStall
                0x2000a122       0x46 D:/EmbeddecSystemsStuff/ticcs1230/simplelink_cc32xx_sdk_7_10_00_13/source\ti/devices/cc32xx/driverlib/gcc/Release/driverlib.a(timer.obj)
                0x2000a122                TimerControlStall
 .text.TimerPrescaleSet
                0x2000a168       0x3c D:/EmbeddecSystemsStuff/ticcs1230/simplelink_cc32xx_sdk_7_10_00_13/source\ti/devices/cc32xx/driverlib/gcc/Release/driverlib.a(timer.obj)
                0x2000a168                TimerPrescaleSet
 .text.TimerLoadSet
                0x2000a1a4       0x3c D:/EmbeddecSystemsStuff/ticcs1230/simplelink_cc32xx_sdk_7_10_00_13/source\ti/devices/cc32xx/driverlib/gcc/Release/driverlib.a(timer.obj)
                0x2000a1a4                TimerLoadSet
 .text.TimerIntEnable
                0x2000a1e0       0x26 D:/EmbeddecSystemsStuff/ticcs1230/simplelink_cc32xx_sdk_7_10_00_13/source\ti/devices/cc32xx/driverlib/gcc/Release/driverlib.a(timer.obj)
                0x2000a1e0                TimerIntEnable
 .text.TimerIntDisable
                0x2000a206       0x26 D:/EmbeddecSystemsStuff/ticcs1230/simplelink_cc32xx_sdk_7_10_00_13/source\ti/devices/cc32xx/driverlib/gcc/Release/driverlib.a(timer.obj)
                0x2000a206                TimerIntDisable
 .text.TimerIntClear
                0x2000a22c       0x1e D:/EmbeddecSystemsStuff/ticcs1230/simplelink_cc32xx_sdk_7_10_00_13/source\ti/devices/cc32xx/driverlib/gcc/Release/driverlib.a(timer.obj)
                0x2000a22c                TimerIntClear
 .text.UARTFIFOLevelSet
                0x2000a24a       0x24 D:/EmbeddecSystemsStuff/ticcs1230/simplelink_cc32xx_sdk_7_10_00_13/source\ti/devices/cc32xx/driverlib/gcc/Release/driverlib.a(uart.obj)
                0x2000a24a                UARTFIFOLevelSet
 .text.UARTConfigSetExpClk
                0x2000a26e       0x92 D:/EmbeddecSystemsStuff/ticcs1230/simplelink_cc32xx_sdk_7_10_00_13/source\ti/devices/cc32xx/driverlib/gcc/Release/driverlib.a(uart.obj)
                0x2000a26e                UARTConfigSetExpClk
 .text.UARTEnable
                0x2000a300       0x36 D:/EmbeddecSystemsStuff/ticcs1230/simplelink_cc32xx_sdk_7_10_00_13/source\ti/devices/cc32xx/driverlib/gcc/Release/driverlib.a(uart.obj)
                0x2000a300                UARTEnable
 .text.UARTDisable
                0x2000a336       0x46 D:/EmbeddecSystemsStuff/ticcs1230/simplelink_cc32xx_sdk_7_10_00_13/source\ti/devices/cc32xx/driverlib/gcc/Release/driverlib.a(uart.obj)
                0x2000a336                UARTDisable
 .text.UARTFlowControlSet
                0x2000a37c       0x2a D:/EmbeddecSystemsStuff/ticcs1230/simplelink_cc32xx_sdk_7_10_00_13/source\ti/devices/cc32xx/driverlib/gcc/Release/driverlib.a(uart.obj)
                0x2000a37c                UARTFlowControlSet
 .text.UARTCharsAvail
                0x2000a3a6       0x26 D:/EmbeddecSystemsStuff/ticcs1230/simplelink_cc32xx_sdk_7_10_00_13/source\ti/devices/cc32xx/driverlib/gcc/Release/driverlib.a(uart.obj)
                0x2000a3a6                UARTCharsAvail
 .text.UARTCharPutNonBlocking
                0x2000a3cc       0x30 D:/EmbeddecSystemsStuff/ticcs1230/simplelink_cc32xx_sdk_7_10_00_13/source\ti/devices/cc32xx/driverlib/gcc/Release/driverlib.a(uart.obj)
                0x2000a3cc                UARTCharPutNonBlocking
 .text.UARTBusy
                0x2000a3fc       0x26 D:/EmbeddecSystemsStuff/ticcs1230/simplelink_cc32xx_sdk_7_10_00_13/source\ti/devices/cc32xx/driverlib/gcc/Release/driverlib.a(uart.obj)
                0x2000a3fc                UARTBusy
 .text.UARTIntEnable
                0x2000a422       0x26 D:/EmbeddecSystemsStuff/ticcs1230/simplelink_cc32xx_sdk_7_10_00_13/source\ti/devices/cc32xx/driverlib/gcc/Release/driverlib.a(uart.obj)
                0x2000a422                UARTIntEnable
 .text.UARTIntDisable
                0x2000a448       0x26 D:/EmbeddecSystemsStuff/ticcs1230/simplelink_cc32xx_sdk_7_10_00_13/source\ti/devices/cc32xx/driverlib/gcc/Release/driverlib.a(uart.obj)
                0x2000a448                UARTIntDisable
 .text.UARTIntStatus
                0x2000a46e       0x2a D:/EmbeddecSystemsStuff/ticcs1230/simplelink_cc32xx_sdk_7_10_00_13/source\ti/devices/cc32xx/driverlib/gcc/Release/driverlib.a(uart.obj)
                0x2000a46e                UARTIntStatus
 .text.UARTIntClear
                0x2000a498       0x1e D:/EmbeddecSystemsStuff/ticcs1230/simplelink_cc32xx_sdk_7_10_00_13/source\ti/devices/cc32xx/driverlib/gcc/Release/driverlib.a(uart.obj)
                0x2000a498                UARTIntClear
 .text.UARTDMAEnable
                0x2000a4b6       0x26 D:/EmbeddecSystemsStuff/ticcs1230/simplelink_cc32xx_sdk_7_10_00_13/source\ti/devices/cc32xx/driverlib/gcc/Release/driverlib.a(uart.obj)
                0x2000a4b6                UARTDMAEnable
 .text.UARTDMADisable
                0x2000a4dc       0x26 D:/EmbeddecSystemsStuff/ticcs1230/simplelink_cc32xx_sdk_7_10_00_13/source\ti/devices/cc32xx/driverlib/gcc/Release/driverlib.a(uart.obj)
                0x2000a4dc                UARTDMADisable
 .text.UARTRxErrorGet
                0x2000a502       0x1c D:/EmbeddecSystemsStuff/ticcs1230/simplelink_cc32xx_sdk_7_10_00_13/source\ti/devices/cc32xx/driverlib/gcc/Release/driverlib.a(uart.obj)
                0x2000a502                UARTRxErrorGet
 *fill*         0x2000a51e        0x2 
 .text.uDMAEnable
                0x2000a520       0x18 D:/EmbeddecSystemsStuff/ticcs1230/simplelink_cc32xx_sdk_7_10_00_13/source\ti/devices/cc32xx/driverlib/gcc/Release/driverlib.a(udma.obj)
                0x2000a520                uDMAEnable
 .text.uDMAErrorStatusGet
                0x2000a538       0x14 D:/EmbeddecSystemsStuff/ticcs1230/simplelink_cc32xx_sdk_7_10_00_13/source\ti/devices/cc32xx/driverlib/gcc/Release/driverlib.a(udma.obj)
                0x2000a538                uDMAErrorStatusGet
 .text.uDMAErrorStatusClear
                0x2000a54c       0x18 D:/EmbeddecSystemsStuff/ticcs1230/simplelink_cc32xx_sdk_7_10_00_13/source\ti/devices/cc32xx/driverlib/gcc/Release/driverlib.a(udma.obj)
                0x2000a54c                uDMAErrorStatusClear
 .text.uDMAChannelEnable
                0x2000a564       0x24 D:/EmbeddecSystemsStuff/ticcs1230/simplelink_cc32xx_sdk_7_10_00_13/source\ti/devices/cc32xx/driverlib/gcc/Release/driverlib.a(udma.obj)
                0x2000a564                uDMAChannelEnable
 .text.uDMAChannelDisable
                0x2000a588       0x24 D:/EmbeddecSystemsStuff/ticcs1230/simplelink_cc32xx_sdk_7_10_00_13/source\ti/devices/cc32xx/driverlib/gcc/Release/driverlib.a(udma.obj)
                0x2000a588                uDMAChannelDisable
 .text.uDMAChannelIsEnabled
                0x2000a5ac       0x34 D:/EmbeddecSystemsStuff/ticcs1230/simplelink_cc32xx_sdk_7_10_00_13/source\ti/devices/cc32xx/driverlib/gcc/Release/driverlib.a(udma.obj)
                0x2000a5ac                uDMAChannelIsEnabled
 .text.uDMAControlBaseSet
                0x2000a5e0       0x1c D:/EmbeddecSystemsStuff/ticcs1230/simplelink_cc32xx_sdk_7_10_00_13/source\ti/devices/cc32xx/driverlib/gcc/Release/driverlib.a(udma.obj)
                0x2000a5e0                uDMAControlBaseSet
 .text.uDMAChannelAttributeDisable
                0x2000a5fc       0x7c D:/EmbeddecSystemsStuff/ticcs1230/simplelink_cc32xx_sdk_7_10_00_13/source\ti/devices/cc32xx/driverlib/gcc/Release/driverlib.a(udma.obj)
                0x2000a5fc                uDMAChannelAttributeDisable
 .text.uDMAChannelControlSet
                0x2000a678       0x48 D:/EmbeddecSystemsStuff/ticcs1230/simplelink_cc32xx_sdk_7_10_00_13/source\ti/devices/cc32xx/driverlib/gcc/Release/driverlib.a(udma.obj)
                0x2000a678                uDMAChannelControlSet
 .text.uDMAChannelTransferSet
                0x2000a6c0      0x104 D:/EmbeddecSystemsStuff/ticcs1230/simplelink_cc32xx_sdk_7_10_00_13/source\ti/devices/cc32xx/driverlib/gcc/Release/driverlib.a(udma.obj)
                0x2000a6c0                uDMAChannelTransferSet
 .text.uDMAChannelSizeGet
                0x2000a7c4       0x48 D:/EmbeddecSystemsStuff/ticcs1230/simplelink_cc32xx_sdk_7_10_00_13/source\ti/devices/cc32xx/driverlib/gcc/Release/driverlib.a(udma.obj)
                0x2000a7c4                uDMAChannelSizeGet
 .text.uDMAIntClear
                0x2000a80c       0x1c D:/EmbeddecSystemsStuff/ticcs1230/simplelink_cc32xx_sdk_7_10_00_13/source\ti/devices/cc32xx/driverlib/gcc/Release/driverlib.a(udma.obj)
                0x2000a80c                uDMAIntClear
 .text.uDMAChannelAssign
                0x2000a828       0x58 D:/EmbeddecSystemsStuff/ticcs1230/simplelink_cc32xx_sdk_7_10_00_13/source\ti/devices/cc32xx/driverlib/gcc/Release/driverlib.a(udma.obj)
                0x2000a828                uDMAChannelAssign
 .text.UtilsDelay
                0x2000a880        0xa D:/EmbeddecSystemsStuff/ticcs1230/simplelink_cc32xx_sdk_7_10_00_13/source\ti/devices/cc32xx/driverlib/gcc/Release/driverlib.a(utils.obj)
                0x2000a880                UtilsDelay
 *fill*         0x2000a88a        0x2 
 .text.FlashDisable
                0x2000a88c       0x50 D:/EmbeddecSystemsStuff/ticcs1230/simplelink_cc32xx_sdk_7_10_00_13/source\ti/devices/cc32xx/driverlib/gcc/Release/driverlib.a(flash.obj)
                0x2000a88c                FlashDisable
 .text.malloc   0x2000a8dc       0x10 D:/EmbeddecSystemsStuff/ticcs1230/ccs/tools/compiler/gcc-arm-none-eabi-9-2019-q4-major/arm-none-eabi/lib/thumb/v7e-m/nofp\libc_nano.a(lib_a-malloc.o)
                0x2000a8dc                malloc
 .text.free     0x2000a8ec       0x10 D:/EmbeddecSystemsStuff/ticcs1230/ccs/tools/compiler/gcc-arm-none-eabi-9-2019-q4-major/arm-none-eabi/lib/thumb/v7e-m/nofp\libc_nano.a(lib_a-malloc.o)
                0x2000a8ec                free
 .text.memcpy   0x2000a8fc       0x1c D:/EmbeddecSystemsStuff/ticcs1230/ccs/tools/compiler/gcc-arm-none-eabi-9-2019-q4-major/arm-none-eabi/lib/thumb/v7e-m/nofp\libc_nano.a(lib_a-memcpy-stub.o)
                0x2000a8fc                memcpy
 .text.memset   0x2000a918       0x10 D:/EmbeddecSystemsStuff/ticcs1230/ccs/tools/compiler/gcc-arm-none-eabi-9-2019-q4-major/arm-none-eabi/lib/thumb/v7e-m/nofp\libc_nano.a(lib_a-memset.o)
                0x2000a918                memset
 .text._free_r  0x2000a928       0x9c D:/EmbeddecSystemsStuff/ticcs1230/ccs/tools/compiler/gcc-arm-none-eabi-9-2019-q4-major/arm-none-eabi/lib/thumb/v7e-m/nofp\libc_nano.a(lib_a-nano-freer.o)
                0x2000a928                _free_r
 .text._malloc_r
                0x2000a9c4       0xb4 D:/EmbeddecSystemsStuff/ticcs1230/ccs/tools/compiler/gcc-arm-none-eabi-9-2019-q4-major/arm-none-eabi/lib/thumb/v7e-m/nofp\libc_nano.a(lib_a-nano-mallocr.o)
                0x2000a9c4                _malloc_r
 .text._sbrk_r  0x2000aa78       0x20 D:/EmbeddecSystemsStuff/ticcs1230/ccs/tools/compiler/gcc-arm-none-eabi-9-2019-q4-major/arm-none-eabi/lib/thumb/v7e-m/nofp\libc_nano.a(lib_a-sbrkr.o)
                0x2000aa78                _sbrk_r
 .text.snprintf
                0x2000aa98       0x68 D:/EmbeddecSystemsStuff/ticcs1230/ccs/tools/compiler/gcc-arm-none-eabi-9-2019-q4-major/arm-none-eabi/lib/thumb/v7e-m/nofp\libc_nano.a(lib_a-snprintf.o)
                0x2000aa98                sniprintf
                0x2000aa98                snprintf
 .text.__malloc_lock
                0x2000ab00        0xc D:/EmbeddecSystemsStuff/ticcs1230/ccs/tools/compiler/gcc-arm-none-eabi-9-2019-q4-major/arm-none-eabi/lib/thumb/v7e-m/nofp\libc_nano.a(lib_a-mlock.o)
                0x2000ab00                __malloc_lock
 .text.__malloc_unlock
                0x2000ab0c        0xc D:/EmbeddecSystemsStuff/ticcs1230/ccs/tools/compiler/gcc-arm-none-eabi-9-2019-q4-major/arm-none-eabi/lib/thumb/v7e-m/nofp\libc_nano.a(lib_a-mlock.o)
                0x2000ab0c                __malloc_unlock
 .text.__ssputs_r
                0x2000ab18       0xb6 D:/EmbeddecSystemsStuff/ticcs1230/ccs/tools/compiler/gcc-arm-none-eabi-9-2019-q4-major/arm-none-eabi/lib/thumb/v7e-m/nofp\libc_nano.a(lib_a-nano-svfprintf.o)
                0x2000ab18                __ssputs_r
 *fill*         0x2000abce        0x2 
 .text._svfprintf_r
                0x2000abd0      0x200 D:/EmbeddecSystemsStuff/ticcs1230/ccs/tools/compiler/gcc-arm-none-eabi-9-2019-q4-major/arm-none-eabi/lib/thumb/v7e-m/nofp\libc_nano.a(lib_a-nano-svfprintf.o)
                0x2000abd0                _svfiprintf_r
                0x2000abd0                _svfprintf_r
 .text._printf_common
                0x2000add0       0xda D:/EmbeddecSystemsStuff/ticcs1230/ccs/tools/compiler/gcc-arm-none-eabi-9-2019-q4-major/arm-none-eabi/lib/thumb/v7e-m/nofp\libc_nano.a(lib_a-nano-vfprintf_i.o)
                0x2000add0                _printf_common
 *fill*         0x2000aeaa        0x2 
 .text._printf_i
                0x2000aeac      0x24c D:/EmbeddecSystemsStuff/ticcs1230/ccs/tools/compiler/gcc-arm-none-eabi-9-2019-q4-major/arm-none-eabi/lib/thumb/v7e-m/nofp\libc_nano.a(lib_a-nano-vfprintf_i.o)
                0x2000aeac                _printf_i
 .text.__retarget_lock_acquire_recursive
                0x2000b0f8        0x2 D:/EmbeddecSystemsStuff/ticcs1230/ccs/tools/compiler/gcc-arm-none-eabi-9-2019-q4-major/arm-none-eabi/lib/thumb/v7e-m/nofp\libc_nano.a(lib_a-lock.o)
                0x2000b0f8                __retarget_lock_acquire_recursive
 .text.__retarget_lock_release_recursive
                0x2000b0fa        0x2 D:/EmbeddecSystemsStuff/ticcs1230/ccs/tools/compiler/gcc-arm-none-eabi-9-2019-q4-major/arm-none-eabi/lib/thumb/v7e-m/nofp\libc_nano.a(lib_a-lock.o)
                0x2000b0fa                __retarget_lock_release_recursive
 .text.memmove  0x2000b0fc       0x34 D:/EmbeddecSystemsStuff/ticcs1230/ccs/tools/compiler/gcc-arm-none-eabi-9-2019-q4-major/arm-none-eabi/lib/thumb/v7e-m/nofp\libc_nano.a(lib_a-memmove.o)
                0x2000b0fc                memmove
 .text._realloc_r
                0x2000b130       0x4c D:/EmbeddecSystemsStuff/ticcs1230/ccs/tools/compiler/gcc-arm-none-eabi-9-2019-q4-major/arm-none-eabi/lib/thumb/v7e-m/nofp\libc_nano.a(lib_a-nano-reallocr.o)
                0x2000b130                _realloc_r
 .text._malloc_usable_size_r
                0x2000b17c       0x10 D:/EmbeddecSystemsStuff/ticcs1230/ccs/tools/compiler/gcc-arm-none-eabi-9-2019-q4-major/arm-none-eabi/lib/thumb/v7e-m/nofp\libc_nano.a(lib_a-nano-msizer.o)
                0x2000b17c                _malloc_usable_size_r
 .text._sbrk    0x2000b18c       0x1c D:/EmbeddecSystemsStuff/ticcs1230/ccs/tools/compiler/gcc-arm-none-eabi-9-2019-q4-major/arm-none-eabi/lib/thumb/v7e-m/nofp\libnosys.a(sbrk.o)
                0x2000b18c                _sbrk
                0x2000b1a8                . = ALIGN (0x4)
 *(.ctors)
                0x2000b1a8                . = ALIGN (0x4)
 *(.dtors)
                0x2000b1a8                . = ALIGN (0x4)
                0x2000b1a8                __init_array_start = .
 *(.init_array*)
                0x2000b1a8                __init_array_end = .
 *(.init)
 *(.fini*)
                [!provide]                PROVIDE (__etext = .)
                [!provide]                PROVIDE (_etext = .)
                [!provide]                PROVIDE (etext = .)

.glue_7         0x2000b1a8        0x0
 .glue_7        0x2000b1a8        0x0 linker stubs

.glue_7t        0x2000b1a8        0x0
 .glue_7t       0x2000b1a8        0x0 linker stubs

.vfp11_veneer   0x2000b1a8        0x0
 .vfp11_veneer  0x2000b1a8        0x0 linker stubs

.v4_bx          0x2000b1a8        0x0
 .v4_bx         0x2000b1a8        0x0 linker stubs

.iplt           0x2000b1a8        0x0
 .iplt          0x2000b1a8        0x0 ./gpiointerrupt.o

.rodata         0x2000b1a8      0x607
 *(.rodata)
 *(.rodata*)
 .rodata.SD_SM.str1.4
                0x2000b1a8       0x26 ./gpiointerrupt.o
 *fill*         0x2000b1ce        0x2 
 .rodata.InitI2C.str1.4
                0x2000b1d0       0xaa ./gpiointerrupt.o
 *fill*         0x2000b27a        0x2 
 .rodata.readTemp.str1.4
                0x2000b27c       0x69 ./gpiointerrupt.o
 *fill*         0x2000b2e5        0x3 
 .rodata.str1.4
                0x2000b2e8        0xc ./gpiointerrupt.o
 .rodata.sensors
                0x2000b2f4       0x18 ./gpiointerrupt.o
 .rodata.GPIO_config
                0x2000b30c       0x10 ./syscfg/ti_drivers_config.o
                0x2000b30c                GPIO_config
 .rodata.GPIO_pinUpperBound
                0x2000b31c        0x1 ./syscfg/ti_drivers_config.o
                0x2000b31c                GPIO_pinUpperBound
 *fill*         0x2000b31d        0x3 
 .rodata.I2C_config
                0x2000b320        0x8 ./syscfg/ti_drivers_config.o
                0x2000b320                I2C_config
 .rodata.I2C_count
                0x2000b328        0x1 ./syscfg/ti_drivers_config.o
                0x2000b328                I2C_count
 *fill*         0x2000b329        0x3 
 .rodata.PowerCC32XX_config
                0x2000b32c       0x44 ./syscfg/ti_drivers_config.o
                0x2000b32c                PowerCC32XX_config
 .rodata.Timer_config
                0x2000b370        0x8 ./syscfg/ti_drivers_config.o
                0x2000b370                Timer_config
 .rodata.Timer_count
                0x2000b378        0x1 ./syscfg/ti_drivers_config.o
                0x2000b378                Timer_count
 *fill*         0x2000b379        0x3 
 .rodata.UART2_config
                0x2000b37c        0x8 ./syscfg/ti_drivers_config.o
                0x2000b37c                UART2_config
 .rodata.UART2_count
                0x2000b384        0x1 ./syscfg/ti_drivers_config.o
                0x2000b384                UART2_count
 *fill*         0x2000b385        0x3 
 .rodata.UDMACC32XX_config
                0x2000b388        0x8 ./syscfg/ti_drivers_config.o
                0x2000b388                UDMACC32XX_config
 .rodata.i2cCC32XXHWAttrs
                0x2000b390       0x14 ./syscfg/ti_drivers_config.o
                0x2000b390                i2cCC32XXHWAttrs
 .rodata.timerCC32XXHWAttrs
                0x2000b3a4       0x10 ./syscfg/ti_drivers_config.o
                0x2000b3a4                timerCC32XXHWAttrs
 .rodata.uart2CC32XXHWAttrs0
                0x2000b3b4       0x38 ./syscfg/ti_drivers_config.o
 .rodata.udmaCC3220SHWAttrs
                0x2000b3ec        0xc ./syscfg/ti_drivers_config.o
                0x2000b3ec                udmaCC3220SHWAttrs
 .rodata.pinTable
                0x2000b3f8       0x21 D:/EmbeddecSystemsStuff/ticcs1230/simplelink_cc32xx_sdk_7_10_00_13/source\ti/drivers/lib/gcc/m4/drivers_cc32xx.a(GPIOCC32XX.c.obj)
 *fill*         0x2000b419        0x3 
 .rodata.portConfigs
                0x2000b41c       0x28 D:/EmbeddecSystemsStuff/ticcs1230/simplelink_cc32xx_sdk_7_10_00_13/source\ti/drivers/lib/gcc/m4/drivers_cc32xx.a(GPIOCC32XX.c.obj)
 .rodata.I2C_defaultParams
                0x2000b444       0x10 D:/EmbeddecSystemsStuff/ticcs1230/simplelink_cc32xx_sdk_7_10_00_13/source\ti/drivers/lib/gcc/m4/drivers_cc32xx.a(I2CCC32XX.c.obj)
 .rodata.defaultParams
                0x2000b454        0xc D:/EmbeddecSystemsStuff/ticcs1230/simplelink_cc32xx_sdk_7_10_00_13/source\ti/drivers/lib/gcc/m4/drivers_cc32xx.a(Timer.c.obj)
 .rodata.defaultParams
                0x2000b460        0xc D:/EmbeddecSystemsStuff/ticcs1230/simplelink_cc32xx_sdk_7_10_00_13/source\ti/drivers/lib/gcc/m4/drivers_cc32xx.a(TimerCC32XX.c.obj)
 .rodata.UART2_defaultParams
                0x2000b46c       0x24 D:/EmbeddecSystemsStuff/ticcs1230/simplelink_cc32xx_sdk_7_10_00_13/source\ti/drivers/lib/gcc/m4/drivers_cc32xx.a(UART2.c.obj)
                0x2000b46c                UART2_defaultParams
 .rodata.dataLength
                0x2000b490        0x4 D:/EmbeddecSystemsStuff/ticcs1230/simplelink_cc32xx_sdk_7_10_00_13/source\ti/drivers/lib/gcc/m4/drivers_cc32xx.a(UART2CC32XX.c.obj)
 .rodata.parityType
                0x2000b494        0x5 D:/EmbeddecSystemsStuff/ticcs1230/simplelink_cc32xx_sdk_7_10_00_13/source\ti/drivers/lib/gcc/m4/drivers_cc32xx.a(UART2CC32XX.c.obj)
 *fill*         0x2000b499        0x3 
 .rodata.stopBits
                0x2000b49c        0x2 D:/EmbeddecSystemsStuff/ticcs1230/simplelink_cc32xx_sdk_7_10_00_13/source\ti/drivers/lib/gcc/m4/drivers_cc32xx.a(UART2CC32XX.c.obj)
 *fill*         0x2000b49e        0x2 
 .rodata.g_pulRegs
                0x2000b4a0       0xd4 D:/EmbeddecSystemsStuff/ticcs1230/simplelink_cc32xx_sdk_7_10_00_13/source\ti/devices/cc32xx/driverlib/gcc/Release/driverlib.a(interrupt.obj)
 .rodata.g_pulEnRegs
                0x2000b574       0x18 D:/EmbeddecSystemsStuff/ticcs1230/simplelink_cc32xx_sdk_7_10_00_13/source\ti/devices/cc32xx/driverlib/gcc/Release/driverlib.a(interrupt.obj)
 .rodata.g_pulDisRegs
                0x2000b58c       0x18 D:/EmbeddecSystemsStuff/ticcs1230/simplelink_cc32xx_sdk_7_10_00_13/source\ti/devices/cc32xx/driverlib/gcc/Release/driverlib.a(interrupt.obj)
 .rodata.g_pulPendRegs
                0x2000b5a4       0x18 D:/EmbeddecSystemsStuff/ticcs1230/simplelink_cc32xx_sdk_7_10_00_13/source\ti/devices/cc32xx/driverlib/gcc/Release/driverlib.a(interrupt.obj)
 .rodata.g_pulUnpendRegs
                0x2000b5bc       0x18 D:/EmbeddecSystemsStuff/ticcs1230/simplelink_cc32xx_sdk_7_10_00_13/source\ti/devices/cc32xx/driverlib/gcc/Release/driverlib.a(interrupt.obj)
 .rodata.g_ulPinToPadMap
                0x2000b5d4      0x100 D:/EmbeddecSystemsStuff/ticcs1230/simplelink_cc32xx_sdk_7_10_00_13/source\ti/devices/cc32xx/driverlib/gcc/Release/driverlib.a(pin.obj)
 .rodata.PRCM_PeriphRegsList
                0x2000b6d4       0xa8 D:/EmbeddecSystemsStuff/ticcs1230/simplelink_cc32xx_sdk_7_10_00_13/source\ti/devices/cc32xx/driverlib/gcc/Release/driverlib.a(prcm.obj)
 .rodata._svfprintf_r.str1.1
                0x2000b77c       0x11 D:/EmbeddecSystemsStuff/ticcs1230/ccs/tools/compiler/gcc-arm-none-eabi-9-2019-q4-major/arm-none-eabi/lib/thumb/v7e-m/nofp\libc_nano.a(lib_a-nano-svfprintf.o)
 .rodata._printf_i.str1.1
                0x2000b78d       0x22 D:/EmbeddecSystemsStuff/ticcs1230/ccs/tools/compiler/gcc-arm-none-eabi-9-2019-q4-major/arm-none-eabi/lib/thumb/v7e-m/nofp\libc_nano.a(lib_a-nano-vfprintf_i.o)

.data           0x2000b7b0      0x35c
                0x2000b7b0                __data_load__ = LOADADDR (.data)
                0x2000b7b0                __data_start__ = .
 *(.data)
 *(.data*)
 .data.gpioPinConfigs
                0x2000b7b0       0x84 ./syscfg/ti_drivers_config.o
                0x2000b7b0                gpioPinConfigs
 .data.parkInfo
                0x2000b834       0xf8 ./syscfg/ti_drivers_config.o
                0x2000b834                parkInfo
 .data.PowerCC32XX_module
                0x2000b92c      0x16c D:/EmbeddecSystemsStuff/ticcs1230/simplelink_cc32xx_sdk_7_10_00_13/source\ti/drivers/lib/gcc/m4/drivers_cc32xx.a(PowerCC32XX.c.obj)
                0x2000b92c                PowerCC32XX_module
 .data.SemaphoreP_defaultParams
                0x2000ba98        0x8 D:/EmbeddecSystemsStuff/ticcs1230/simplelink_cc32xx_sdk_7_10_00_13/kernel/nortos\lib/gcc/m4/nortos_cc32xx.a(SemaphoreP_nortos.c.obj)
                0x2000ba98                SemaphoreP_defaultParams
 .data.ClockP_tickPeriod
                0x2000baa0        0x4 D:/EmbeddecSystemsStuff/ticcs1230/simplelink_cc32xx_sdk_7_10_00_13/kernel/nortos\lib/gcc/m4/nortos_cc32xx.a(ClockPSysTick_nortos.c.obj)
                0x2000baa0                ClockP_tickPeriod
 .data.HwiP_swiPIntNum
                0x2000baa4        0x4 D:/EmbeddecSystemsStuff/ticcs1230/simplelink_cc32xx_sdk_7_10_00_13/kernel/nortos\lib/gcc/m4/nortos_cc32xx.a(HwiPCC32XX_nortos.c.obj)
                0x2000baa4                HwiP_swiPIntNum
 .data._impure_ptr
                0x2000baa8        0x4 D:/EmbeddecSystemsStuff/ticcs1230/ccs/tools/compiler/gcc-arm-none-eabi-9-2019-q4-major/arm-none-eabi/lib/thumb/v7e-m/nofp\libc_nano.a(lib_a-impure.o)
                0x2000baa8                _impure_ptr
 .data.impure_data
                0x2000baac       0x60 D:/EmbeddecSystemsStuff/ticcs1230/ccs/tools/compiler/gcc-arm-none-eabi-9-2019-q4-major/arm-none-eabi/lib/thumb/v7e-m/nofp\libc_nano.a(lib_a-impure.o)
                0x2000bb0c                . = ALIGN (0x4)
                0x2000bb0c                __data_end__ = .

.igot.plt       0x2000bb0c        0x0
 .igot.plt      0x2000bb0c        0x0 ./gpiointerrupt.o

.ARM.exidx      0x2000bb0c        0x8
                0x2000bb0c                __exidx_start = .
 *(.ARM.exidx* .gnu.linkonce.armexidx.*)
 .ARM.exidx     0x2000bb0c        0x8 d:/embeddecsystemsstuff/ticcs1230/ccs/tools/compiler/gcc-arm-none-eabi-9-2019-q4-major/bin/../lib/gcc/arm-none-eabi/9.2.1/thumb/v7e-m/nofp\libgcc.a(_udivmoddi4.o)
                0x2000bb14                __exidx_end = .

.rel.dyn        0x2000bb14        0x0
 .rel.iplt      0x2000bb14        0x0 ./gpiointerrupt.o

.ARM.extab
 *(.ARM.extab* .gnu.linkonce.armextab.*)

.bss            0x2000bc00     0x11c0
                0x2000bc00                __bss_start__ = .
 *(.shbss)
 *(.bss)
 *(.bss.*)
 .bss.TimerFlag
                0x2000bc00        0x1 ./gpiointerrupt.o
                0x2000bc00                TimerFlag
 *fill*         0x2000bc01      0x3ff 
 .bss.dmaControlTable
                0x2000c000      0x400 ./syscfg/ti_drivers_config.o
 .bss.uart2RxRingBuffer0
                0x2000c400       0x20 ./syscfg/ti_drivers_config.o
 .bss.uart2TxRingBuffer0
                0x2000c420       0x20 ./syscfg/ti_drivers_config.o
 .bss.initCalled
                0x2000c440        0x1 D:/EmbeddecSystemsStuff/ticcs1230/simplelink_cc32xx_sdk_7_10_00_13/source\ti/drivers/lib/gcc/m4/drivers_cc32xx.a(GPIOCC32XX.c.obj)
 *fill*         0x2000c441        0x3 
 .bss.initSem.4818
                0x2000c444        0x4 D:/EmbeddecSystemsStuff/ticcs1230/simplelink_cc32xx_sdk_7_10_00_13/source\ti/drivers/lib/gcc/m4/drivers_cc32xx.a(GPIOCC32XX.c.obj)
 .bss.portHwiCreatedBitMask
                0x2000c448        0x1 D:/EmbeddecSystemsStuff/ticcs1230/simplelink_cc32xx_sdk_7_10_00_13/source\ti/drivers/lib/gcc/m4/drivers_cc32xx.a(GPIOCC32XX.c.obj)
 *fill*         0x2000c449        0x3 
 .bss.powerNotifyObj
                0x2000c44c       0x14 D:/EmbeddecSystemsStuff/ticcs1230/simplelink_cc32xx_sdk_7_10_00_13/source\ti/drivers/lib/gcc/m4/drivers_cc32xx.a(GPIOCC32XX.c.obj)
 .bss.timerState
                0x2000c460        0x4 D:/EmbeddecSystemsStuff/ticcs1230/simplelink_cc32xx_sdk_7_10_00_13/source\ti/drivers/lib/gcc/m4/drivers_cc32xx.a(TimerCC32XX.c.obj)
 .bss.dmaInitialized
                0x2000c464        0x1 D:/EmbeddecSystemsStuff/ticcs1230/simplelink_cc32xx_sdk_7_10_00_13/source\ti/drivers/lib/gcc/m4/drivers_cc32xx.a(UDMACC32XX.c.obj)
 *fill*         0x2000c465        0x3 
 .bss.postNotifyObj
                0x2000c468       0x14 D:/EmbeddecSystemsStuff/ticcs1230/simplelink_cc32xx_sdk_7_10_00_13/source\ti/drivers/lib/gcc/m4/drivers_cc32xx.a(UDMACC32XX.c.obj)
 .bss.refCount  0x2000c47c        0x4 D:/EmbeddecSystemsStuff/ticcs1230/simplelink_cc32xx_sdk_7_10_00_13/source\ti/drivers/lib/gcc/m4/drivers_cc32xx.a(UDMACC32XX.c.obj)
 .bss.SemaphoreP_initialized
                0x2000c480        0x1 D:/EmbeddecSystemsStuff/ticcs1230/simplelink_cc32xx_sdk_7_10_00_13/kernel/nortos\lib/gcc/m4/nortos_cc32xx.a(SemaphoreP_nortos.c.obj)
 .bss.doEnablePolicy
                0x2000c481        0x1 D:/EmbeddecSystemsStuff/ticcs1230/simplelink_cc32xx_sdk_7_10_00_13/kernel/nortos\lib/gcc/m4/nortos_cc32xx.a(SemaphoreP_nortos.c.obj)
 .bss.pendInProgress
                0x2000c482        0x1 D:/EmbeddecSystemsStuff/ticcs1230/simplelink_cc32xx_sdk_7_10_00_13/kernel/nortos\lib/gcc/m4/nortos_cc32xx.a(SemaphoreP_nortos.c.obj)
 .bss.ClockP_initialized
                0x2000c483        0x1 D:/EmbeddecSystemsStuff/ticcs1230/simplelink_cc32xx_sdk_7_10_00_13/kernel/nortos\lib/gcc/m4/nortos_cc32xx.a(ClockPSysTick_nortos.c.obj)
 .bss.sysTickPeriod
                0x2000c484        0x4 D:/EmbeddecSystemsStuff/ticcs1230/simplelink_cc32xx_sdk_7_10_00_13/kernel/nortos\lib/gcc/m4/nortos_cc32xx.a(ClockPSysTick_nortos.c.obj)
 .bss.HwiP_dispatchTable
                0x2000c488      0x30c D:/EmbeddecSystemsStuff/ticcs1230/simplelink_cc32xx_sdk_7_10_00_13/kernel/nortos\lib/gcc/m4/nortos_cc32xx.a(HwiPCC32XX_nortos.c.obj)
 .bss.SwiP_lockState
                0x2000c794        0x4 D:/EmbeddecSystemsStuff/ticcs1230/simplelink_cc32xx_sdk_7_10_00_13/kernel/nortos\lib/gcc/m4/nortos_cc32xx.a(SwiP_nortos.c.obj)
 .bss.SwiP_readyMask
                0x2000c798        0x4 D:/EmbeddecSystemsStuff/ticcs1230/simplelink_cc32xx_sdk_7_10_00_13/kernel/nortos\lib/gcc/m4/nortos_cc32xx.a(SwiP_nortos.c.obj)
 .bss.SwiP_schedulerRunning
                0x2000c79c        0x1 D:/EmbeddecSystemsStuff/ticcs1230/simplelink_cc32xx_sdk_7_10_00_13/kernel/nortos\lib/gcc/m4/nortos_cc32xx.a(SwiP_nortos.c.obj)
 *fill*         0x2000c79d        0x3 
 .bss.__malloc_free_list
                0x2000c7a0        0x4 D:/EmbeddecSystemsStuff/ticcs1230/ccs/tools/compiler/gcc-arm-none-eabi-9-2019-q4-major/arm-none-eabi/lib/thumb/v7e-m/nofp\libc_nano.a(lib_a-nano-mallocr.o)
                0x2000c7a0                __malloc_free_list
 .bss.__malloc_sbrk_start
                0x2000c7a4        0x4 D:/EmbeddecSystemsStuff/ticcs1230/ccs/tools/compiler/gcc-arm-none-eabi-9-2019-q4-major/arm-none-eabi/lib/thumb/v7e-m/nofp\libc_nano.a(lib_a-nano-mallocr.o)
                0x2000c7a4                __malloc_sbrk_start
 .bss.heap_end.4144
                0x2000c7a8        0x4 D:/EmbeddecSystemsStuff/ticcs1230/ccs/tools/compiler/gcc-arm-none-eabi-9-2019-q4-major/arm-none-eabi/lib/thumb/v7e-m/nofp\libnosys.a(sbrk.o)
 *(COMMON)
 COMMON         0x2000c7ac       0xbc ./gpiointerrupt.o
                0x2000c7ac                timer0
                0x2000c7b0                tasks
                0x2000c7ec                output
                0x2000c82c                ambientTemp
                0x2000c830                i2cTransaction
                0x2000c850                i2c
                0x2000c854                rxBuffer
                0x2000c858                bytesToSend
                0x2000c85c                seconds
                0x2000c860                txBuffer
                0x2000c861                heat
                0x2000c862                setPoint
                0x2000c864                uart
 COMMON         0x2000c868      0x408 ./syscfg/ti_drivers_config.o
                0x2000c868                gpioCallbackFunctions
                0x2000c8ec                uart2CC32XXObjects0
                0x2000ca64                udmaCC3220SObject
                0x2000ca6c                timerCC32XXObjects
                0x2000caf0                i2cCC32XXObjects
                0x2000cbec                gpioUserArgs
 COMMON         0x2000cc70      0x12c D:/EmbeddecSystemsStuff/ticcs1230/simplelink_cc32xx_sdk_7_10_00_13/source\ti/drivers/lib/gcc/m4/drivers_cc32xx.a(PowerCC32XX.c.obj)
                0x2000cc70                PowerCC32XX_contextSave
 *fill*         0x2000cd9c        0x4 
 COMMON         0x2000cda0       0x10 D:/EmbeddecSystemsStuff/ticcs1230/simplelink_cc32xx_sdk_7_10_00_13/kernel/nortos\lib/gcc/m4/nortos_cc32xx.a(ClockPSysTick_nortos.c.obj)
                0x2000cda0                ClockP_ctrl
 COMMON         0x2000cdb0        0x4 D:/EmbeddecSystemsStuff/ticcs1230/ccs/tools/compiler/gcc-arm-none-eabi-9-2019-q4-major/arm-none-eabi/lib/thumb/v7e-m/nofp\libc_nano.a(lib_a-reent.o)
                0x2000cdb0                errno
 COMMON         0x2000cdb4        0x9 D:/EmbeddecSystemsStuff/ticcs1230/ccs/tools/compiler/gcc-arm-none-eabi-9-2019-q4-major/arm-none-eabi/lib/thumb/v7e-m/nofp\libc_nano.a(lib_a-lock.o)
                0x2000cdb4                __lock___atexit_recursive_mutex
                0x2000cdb5                __lock___arc4random_mutex
                0x2000cdb6                __lock___env_recursive_mutex
                0x2000cdb7                __lock___sinit_recursive_mutex
                0x2000cdb8                __lock___malloc_recursive_mutex
                0x2000cdb9                __lock___at_quick_exit_mutex
                0x2000cdba                __lock___dd_hash_mutex
                0x2000cdbb                __lock___tz_mutex
                0x2000cdbc                __lock___sfp_recursive_mutex
                0x2000cdc0                . = ALIGN (0x4)
 *fill*         0x2000cdbd        0x3 
                0x2000cdc0                __bss_end__ = .

.heap           0x2000cdc0     0x8000
                0x2000cdc0                __heap_start__ = .
                0x2000cdc0                end = __heap_start__
                0x2000cdc0                _end = end
                0x2000cdc0                __end = end
                0x20014dc0                . = (. + HEAP_SIZE)
 *fill*         0x2000cdc0     0x8000 
 *(.heap)
                0x20014dc0                __heap_end__ = .
                0x20014dc0                __HeapLimit = __heap_end__

.stack          0x20014dc0     0x1000
                0x20014dc0                _stack = .
                0x20014dc0                __stack = .
 *(.stack)
                0x20015dc0                . = (. + STACKSIZE)
 *fill*         0x20014dc0     0x1000 
                0x20015dc0                _stack_end = .
                0x20015dc0                __stack_end = .

.log_data
 *(.log_data)

.log_ptr
 *(.log_ptr*)
LOAD D:/EmbeddecSystemsStuff/Workspaces/final/gpiointerrupt_CC3220S_LAUNCHXL_nortos_gcc/MCU+Image/syscfg\ti_utils_build_linker.cmd.genlibs
LOAD D:/EmbeddecSystemsStuff/ticcs1230/simplelink_cc32xx_sdk_7_10_00_13/source\ti/drivers/lib/gcc/m4/drivers_cc32xx.a
LOAD D:/EmbeddecSystemsStuff/ticcs1230/simplelink_cc32xx_sdk_7_10_00_13/source\ti/grlib/lib/gcc/m4/grlib.a
LOAD D:/EmbeddecSystemsStuff/ticcs1230/simplelink_cc32xx_sdk_7_10_00_13/kernel/nortos\lib/gcc/m4/nortos_cc32xx.a
LOAD D:/EmbeddecSystemsStuff/ticcs1230/simplelink_cc32xx_sdk_7_10_00_13/source\ti/devices/cc32xx/driverlib/gcc/Release/driverlib.a
LOAD d:/embeddecsystemsstuff/ticcs1230/ccs/tools/compiler/gcc-arm-none-eabi-9-2019-q4-major/bin/../lib/gcc/arm-none-eabi/9.2.1/thumb/v7e-m/nofp\libgcc.a
LOAD D:/EmbeddecSystemsStuff/ticcs1230/ccs/tools/compiler/gcc-arm-none-eabi-9-2019-q4-major/arm-none-eabi/lib/thumb/v7e-m/nofp\libc_nano.a
LOAD D:/EmbeddecSystemsStuff/ticcs1230/ccs/tools/compiler/gcc-arm-none-eabi-9-2019-q4-major/arm-none-eabi/lib/thumb/v7e-m/nofp\libm.a
LOAD D:/EmbeddecSystemsStuff/ticcs1230/ccs/tools/compiler/gcc-arm-none-eabi-9-2019-q4-major/arm-none-eabi/lib/thumb/v7e-m/nofp\libnosys.a
START GROUP
LOAD d:/embeddecsystemsstuff/ticcs1230/ccs/tools/compiler/gcc-arm-none-eabi-9-2019-q4-major/bin/../lib/gcc/arm-none-eabi/9.2.1/thumb/v7e-m/nofp\libgcc.a
LOAD D:/EmbeddecSystemsStuff/ticcs1230/ccs/tools/compiler/gcc-arm-none-eabi-9-2019-q4-major/arm-none-eabi/lib/thumb/v7e-m/nofp\libg_nano.a
LOAD D:/EmbeddecSystemsStuff/ticcs1230/ccs/tools/compiler/gcc-arm-none-eabi-9-2019-q4-major/arm-none-eabi/lib/thumb/v7e-m/nofp\libc_nano.a
END GROUP
START GROUP
LOAD d:/embeddecsystemsstuff/ticcs1230/ccs/tools/compiler/gcc-arm-none-eabi-9-2019-q4-major/bin/../lib/gcc/arm-none-eabi/9.2.1/thumb/v7e-m/nofp\libgcc.a
LOAD D:/EmbeddecSystemsStuff/ticcs1230/ccs/tools/compiler/gcc-arm-none-eabi-9-2019-q4-major/arm-none-eabi/lib/thumb/v7e-m/nofp\libc_nano.a
END GROUP
OUTPUT(gpiointerrupt_CC3220S_LAUNCHXL_nortos_gcc.out elf32-littlearm)

.debug_info     0x00000000    0x1dafe
 .debug_info    0x00000000     0x162b ./gpiointerrupt.o
 .debug_info    0x0000162b     0x15ae ./syscfg/ti_drivers_config.o
 .debug_info    0x00002bd9       0x82 ./main_nortos.o
 .debug_info    0x00002c5b      0xaa4 D:/EmbeddecSystemsStuff/ticcs1230/simplelink_cc32xx_sdk_7_10_00_13/source\ti/drivers/lib/gcc/m4/drivers_cc32xx.a(GPIO.c.obj)
 .debug_info    0x000036ff     0x10c8 D:/EmbeddecSystemsStuff/ticcs1230/simplelink_cc32xx_sdk_7_10_00_13/source\ti/drivers/lib/gcc/m4/drivers_cc32xx.a(GPIOCC32XX.c.obj)
 .debug_info    0x000047c7     0x11d4 D:/EmbeddecSystemsStuff/ticcs1230/simplelink_cc32xx_sdk_7_10_00_13/source\ti/drivers/lib/gcc/m4/drivers_cc32xx.a(I2C.c.obj)
 .debug_info    0x0000599b     0x1eb3 D:/EmbeddecSystemsStuff/ticcs1230/simplelink_cc32xx_sdk_7_10_00_13/source\ti/drivers/lib/gcc/m4/drivers_cc32xx.a(I2CCC32XX.c.obj)
 .debug_info    0x0000784e     0x1f70 D:/EmbeddecSystemsStuff/ticcs1230/simplelink_cc32xx_sdk_7_10_00_13/source\ti/drivers/lib/gcc/m4/drivers_cc32xx.a(PowerCC32XX.c.obj)
 .debug_info    0x000097be     0x101d D:/EmbeddecSystemsStuff/ticcs1230/simplelink_cc32xx_sdk_7_10_00_13/source\ti/drivers/lib/gcc/m4/drivers_cc32xx.a(Timer.c.obj)
 .debug_info    0x0000a7db     0x126b D:/EmbeddecSystemsStuff/ticcs1230/simplelink_cc32xx_sdk_7_10_00_13/source\ti/drivers/lib/gcc/m4/drivers_cc32xx.a(TimerCC32XX.c.obj)
 .debug_info    0x0000ba46     0x2138 D:/EmbeddecSystemsStuff/ticcs1230/simplelink_cc32xx_sdk_7_10_00_13/source\ti/drivers/lib/gcc/m4/drivers_cc32xx.a(UART2.c.obj)
 .debug_info    0x0000db7e     0x2db2 D:/EmbeddecSystemsStuff/ticcs1230/simplelink_cc32xx_sdk_7_10_00_13/source\ti/drivers/lib/gcc/m4/drivers_cc32xx.a(UART2CC32XX.c.obj)
 .debug_info    0x00010930      0xc58 D:/EmbeddecSystemsStuff/ticcs1230/simplelink_cc32xx_sdk_7_10_00_13/source\ti/drivers/lib/gcc/m4/drivers_cc32xx.a(List.c.obj)
 .debug_info    0x00011588      0x811 D:/EmbeddecSystemsStuff/ticcs1230/simplelink_cc32xx_sdk_7_10_00_13/source\ti/drivers/lib/gcc/m4/drivers_cc32xx.a(RingBuf.c.obj)
 .debug_info    0x00011d99      0x632 D:/EmbeddecSystemsStuff/ticcs1230/simplelink_cc32xx_sdk_7_10_00_13/source\ti/drivers/lib/gcc/m4/drivers_cc32xx.a(UDMACC32XX.c.obj)
 .debug_info    0x000123cb      0x1ec D:/EmbeddecSystemsStuff/ticcs1230/simplelink_cc32xx_sdk_7_10_00_13/kernel/nortos\lib/gcc/m4/nortos_cc32xx.a(NoRTOS.c.obj)
 .debug_info    0x000125b7     0x1498 D:/EmbeddecSystemsStuff/ticcs1230/simplelink_cc32xx_sdk_7_10_00_13/kernel/nortos\lib/gcc/m4/nortos_cc32xx.a(SemaphoreP_nortos.c.obj)
 .debug_info    0x00013a4f     0x1b01 D:/EmbeddecSystemsStuff/ticcs1230/simplelink_cc32xx_sdk_7_10_00_13/kernel/nortos\lib/gcc/m4/nortos_cc32xx.a(ClockPSysTick_nortos.c.obj)
 .debug_info    0x00015550     0x17d2 D:/EmbeddecSystemsStuff/ticcs1230/simplelink_cc32xx_sdk_7_10_00_13/kernel/nortos\lib/gcc/m4/nortos_cc32xx.a(HwiPCC32XX_nortos.c.obj)
 .debug_info    0x00016d22      0x8aa D:/EmbeddecSystemsStuff/ticcs1230/simplelink_cc32xx_sdk_7_10_00_13/kernel/nortos\lib/gcc/m4/nortos_cc32xx.a(PowerCC32XX_nortos.c.obj)
 .debug_info    0x000175cc      0xb83 D:/EmbeddecSystemsStuff/ticcs1230/simplelink_cc32xx_sdk_7_10_00_13/kernel/nortos\lib/gcc/m4/nortos_cc32xx.a(startup_cc32xx_gcc.c.obj)
 .debug_info    0x0001814f     0x1a3a D:/EmbeddecSystemsStuff/ticcs1230/simplelink_cc32xx_sdk_7_10_00_13/kernel/nortos\lib/gcc/m4/nortos_cc32xx.a(SwiP_nortos.c.obj)
 .debug_info    0x00019b89      0x109 D:/EmbeddecSystemsStuff/ticcs1230/simplelink_cc32xx_sdk_7_10_00_13/source\ti/devices/cc32xx/driverlib/gcc/Release/driverlib.a(cpu.obj)
 .debug_info    0x00019c92      0x3e6 D:/EmbeddecSystemsStuff/ticcs1230/simplelink_cc32xx_sdk_7_10_00_13/source\ti/devices/cc32xx/driverlib/gcc/Release/driverlib.a(gpio.obj)
 .debug_info    0x0001a078      0xc41 D:/EmbeddecSystemsStuff/ticcs1230/simplelink_cc32xx_sdk_7_10_00_13/source\ti/devices/cc32xx/driverlib/gcc/Release/driverlib.a(i2c.obj)
 .debug_info    0x0001acb9      0x3a3 D:/EmbeddecSystemsStuff/ticcs1230/simplelink_cc32xx_sdk_7_10_00_13/source\ti/devices/cc32xx/driverlib/gcc/Release/driverlib.a(interrupt.obj)
 .debug_info    0x0001b05c      0x545 D:/EmbeddecSystemsStuff/ticcs1230/simplelink_cc32xx_sdk_7_10_00_13/source\ti/devices/cc32xx/driverlib/gcc/Release/driverlib.a(pin.obj)
 .debug_info    0x0001b5a1      0xc9c D:/EmbeddecSystemsStuff/ticcs1230/simplelink_cc32xx_sdk_7_10_00_13/source\ti/devices/cc32xx/driverlib/gcc/Release/driverlib.a(prcm.obj)
 .debug_info    0x0001c23d      0x10e D:/EmbeddecSystemsStuff/ticcs1230/simplelink_cc32xx_sdk_7_10_00_13/source\ti/devices/cc32xx/driverlib/gcc/Release/driverlib.a(systick.obj)
 .debug_info    0x0001c34b      0x612 D:/EmbeddecSystemsStuff/ticcs1230/simplelink_cc32xx_sdk_7_10_00_13/source\ti/devices/cc32xx/driverlib/gcc/Release/driverlib.a(timer.obj)
 .debug_info    0x0001c95d      0x89d D:/EmbeddecSystemsStuff/ticcs1230/simplelink_cc32xx_sdk_7_10_00_13/source\ti/devices/cc32xx/driverlib/gcc/Release/driverlib.a(uart.obj)
 .debug_info    0x0001d1fa      0x58d D:/EmbeddecSystemsStuff/ticcs1230/simplelink_cc32xx_sdk_7_10_00_13/source\ti/devices/cc32xx/driverlib/gcc/Release/driverlib.a(udma.obj)
 .debug_info    0x0001d787       0x52 D:/EmbeddecSystemsStuff/ticcs1230/simplelink_cc32xx_sdk_7_10_00_13/source\ti/devices/cc32xx/driverlib/gcc/Release/driverlib.a(utils.obj)
 .debug_info    0x0001d7d9      0x325 D:/EmbeddecSystemsStuff/ticcs1230/simplelink_cc32xx_sdk_7_10_00_13/source\ti/devices/cc32xx/driverlib/gcc/Release/driverlib.a(flash.obj)

.debug_abbrev   0x00000000     0x5ba4
 .debug_abbrev  0x00000000      0x409 ./gpiointerrupt.o
 .debug_abbrev  0x00000409      0x279 ./syscfg/ti_drivers_config.o
 .debug_abbrev  0x00000682       0x43 ./main_nortos.o
 .debug_abbrev  0x000006c5      0x23f D:/EmbeddecSystemsStuff/ticcs1230/simplelink_cc32xx_sdk_7_10_00_13/source\ti/drivers/lib/gcc/m4/drivers_cc32xx.a(GPIO.c.obj)
 .debug_abbrev  0x00000904      0x386 D:/EmbeddecSystemsStuff/ticcs1230/simplelink_cc32xx_sdk_7_10_00_13/source\ti/drivers/lib/gcc/m4/drivers_cc32xx.a(GPIOCC32XX.c.obj)
 .debug_abbrev  0x00000c8a      0x3d5 D:/EmbeddecSystemsStuff/ticcs1230/simplelink_cc32xx_sdk_7_10_00_13/source\ti/drivers/lib/gcc/m4/drivers_cc32xx.a(I2C.c.obj)
 .debug_abbrev  0x0000105f      0x512 D:/EmbeddecSystemsStuff/ticcs1230/simplelink_cc32xx_sdk_7_10_00_13/source\ti/drivers/lib/gcc/m4/drivers_cc32xx.a(I2CCC32XX.c.obj)
 .debug_abbrev  0x00001571      0x509 D:/EmbeddecSystemsStuff/ticcs1230/simplelink_cc32xx_sdk_7_10_00_13/source\ti/drivers/lib/gcc/m4/drivers_cc32xx.a(PowerCC32XX.c.obj)
 .debug_abbrev  0x00001a7a      0x303 D:/EmbeddecSystemsStuff/ticcs1230/simplelink_cc32xx_sdk_7_10_00_13/source\ti/drivers/lib/gcc/m4/drivers_cc32xx.a(Timer.c.obj)
 .debug_abbrev  0x00001d7d      0x458 D:/EmbeddecSystemsStuff/ticcs1230/simplelink_cc32xx_sdk_7_10_00_13/source\ti/drivers/lib/gcc/m4/drivers_cc32xx.a(TimerCC32XX.c.obj)
 .debug_abbrev  0x000021d5      0x45a D:/EmbeddecSystemsStuff/ticcs1230/simplelink_cc32xx_sdk_7_10_00_13/source\ti/drivers/lib/gcc/m4/drivers_cc32xx.a(UART2.c.obj)
 .debug_abbrev  0x0000262f      0x54d D:/EmbeddecSystemsStuff/ticcs1230/simplelink_cc32xx_sdk_7_10_00_13/source\ti/drivers/lib/gcc/m4/drivers_cc32xx.a(UART2CC32XX.c.obj)
 .debug_abbrev  0x00002b7c      0x27b D:/EmbeddecSystemsStuff/ticcs1230/simplelink_cc32xx_sdk_7_10_00_13/source\ti/drivers/lib/gcc/m4/drivers_cc32xx.a(List.c.obj)
 .debug_abbrev  0x00002df7      0x249 D:/EmbeddecSystemsStuff/ticcs1230/simplelink_cc32xx_sdk_7_10_00_13/source\ti/drivers/lib/gcc/m4/drivers_cc32xx.a(RingBuf.c.obj)
 .debug_abbrev  0x00003040      0x217 D:/EmbeddecSystemsStuff/ticcs1230/simplelink_cc32xx_sdk_7_10_00_13/source\ti/drivers/lib/gcc/m4/drivers_cc32xx.a(UDMACC32XX.c.obj)
 .debug_abbrev  0x00003257      0x116 D:/EmbeddecSystemsStuff/ticcs1230/simplelink_cc32xx_sdk_7_10_00_13/kernel/nortos\lib/gcc/m4/nortos_cc32xx.a(NoRTOS.c.obj)
 .debug_abbrev  0x0000336d      0x470 D:/EmbeddecSystemsStuff/ticcs1230/simplelink_cc32xx_sdk_7_10_00_13/kernel/nortos\lib/gcc/m4/nortos_cc32xx.a(SemaphoreP_nortos.c.obj)
 .debug_abbrev  0x000037dd      0x5d6 D:/EmbeddecSystemsStuff/ticcs1230/simplelink_cc32xx_sdk_7_10_00_13/kernel/nortos\lib/gcc/m4/nortos_cc32xx.a(ClockPSysTick_nortos.c.obj)
 .debug_abbrev  0x00003db3      0x4e6 D:/EmbeddecSystemsStuff/ticcs1230/simplelink_cc32xx_sdk_7_10_00_13/kernel/nortos\lib/gcc/m4/nortos_cc32xx.a(HwiPCC32XX_nortos.c.obj)
 .debug_abbrev  0x00004299      0x249 D:/EmbeddecSystemsStuff/ticcs1230/simplelink_cc32xx_sdk_7_10_00_13/kernel/nortos\lib/gcc/m4/nortos_cc32xx.a(PowerCC32XX_nortos.c.obj)
 .debug_abbrev  0x000044e2      0x301 D:/EmbeddecSystemsStuff/ticcs1230/simplelink_cc32xx_sdk_7_10_00_13/kernel/nortos\lib/gcc/m4/nortos_cc32xx.a(startup_cc32xx_gcc.c.obj)
 .debug_abbrev  0x000047e3      0x523 D:/EmbeddecSystemsStuff/ticcs1230/simplelink_cc32xx_sdk_7_10_00_13/kernel/nortos\lib/gcc/m4/nortos_cc32xx.a(SwiP_nortos.c.obj)
 .debug_abbrev  0x00004d06       0xe0 D:/EmbeddecSystemsStuff/ticcs1230/simplelink_cc32xx_sdk_7_10_00_13/source\ti/devices/cc32xx/driverlib/gcc/Release/driverlib.a(cpu.obj)
 .debug_abbrev  0x00004de6      0x12e D:/EmbeddecSystemsStuff/ticcs1230/simplelink_cc32xx_sdk_7_10_00_13/source\ti/devices/cc32xx/driverlib/gcc/Release/driverlib.a(gpio.obj)
 .debug_abbrev  0x00004f14      0x134 D:/EmbeddecSystemsStuff/ticcs1230/simplelink_cc32xx_sdk_7_10_00_13/source\ti/devices/cc32xx/driverlib/gcc/Release/driverlib.a(i2c.obj)
 .debug_abbrev  0x00005048      0x15d D:/EmbeddecSystemsStuff/ticcs1230/simplelink_cc32xx_sdk_7_10_00_13/source\ti/devices/cc32xx/driverlib/gcc/Release/driverlib.a(interrupt.obj)
 .debug_abbrev  0x000051a5      0x158 D:/EmbeddecSystemsStuff/ticcs1230/simplelink_cc32xx_sdk_7_10_00_13/source\ti/devices/cc32xx/driverlib/gcc/Release/driverlib.a(pin.obj)
 .debug_abbrev  0x000052fd      0x20f D:/EmbeddecSystemsStuff/ticcs1230/simplelink_cc32xx_sdk_7_10_00_13/source\ti/devices/cc32xx/driverlib/gcc/Release/driverlib.a(prcm.obj)
 .debug_abbrev  0x0000550c       0xe4 D:/EmbeddecSystemsStuff/ticcs1230/simplelink_cc32xx_sdk_7_10_00_13/source\ti/devices/cc32xx/driverlib/gcc/Release/driverlib.a(systick.obj)
 .debug_abbrev  0x000055f0       0xec D:/EmbeddecSystemsStuff/ticcs1230/simplelink_cc32xx_sdk_7_10_00_13/source\ti/devices/cc32xx/driverlib/gcc/Release/driverlib.a(timer.obj)
 .debug_abbrev  0x000056dc      0x145 D:/EmbeddecSystemsStuff/ticcs1230/simplelink_cc32xx_sdk_7_10_00_13/source\ti/devices/cc32xx/driverlib/gcc/Release/driverlib.a(uart.obj)
 .debug_abbrev  0x00005821      0x186 D:/EmbeddecSystemsStuff/ticcs1230/simplelink_cc32xx_sdk_7_10_00_13/source\ti/devices/cc32xx/driverlib/gcc/Release/driverlib.a(udma.obj)
 .debug_abbrev  0x000059a7       0x4c D:/EmbeddecSystemsStuff/ticcs1230/simplelink_cc32xx_sdk_7_10_00_13/source\ti/devices/cc32xx/driverlib/gcc/Release/driverlib.a(utils.obj)
 .debug_abbrev  0x000059f3      0x1b1 D:/EmbeddecSystemsStuff/ticcs1230/simplelink_cc32xx_sdk_7_10_00_13/source\ti/devices/cc32xx/driverlib/gcc/Release/driverlib.a(flash.obj)

.debug_loc      0x00000000     0xa469
 .debug_loc     0x00000000      0x1ef ./gpiointerrupt.o
 .debug_loc     0x000001ef       0x13 ./syscfg/ti_drivers_config.o
 .debug_loc     0x00000202       0x6f D:/EmbeddecSystemsStuff/ticcs1230/simplelink_cc32xx_sdk_7_10_00_13/source\ti/drivers/lib/gcc/m4/drivers_cc32xx.a(GPIO.c.obj)
 .debug_loc     0x00000271      0xaee D:/EmbeddecSystemsStuff/ticcs1230/simplelink_cc32xx_sdk_7_10_00_13/source\ti/drivers/lib/gcc/m4/drivers_cc32xx.a(GPIOCC32XX.c.obj)
 .debug_loc     0x00000d5f      0x33a D:/EmbeddecSystemsStuff/ticcs1230/simplelink_cc32xx_sdk_7_10_00_13/source\ti/drivers/lib/gcc/m4/drivers_cc32xx.a(I2C.c.obj)
 .debug_loc     0x00001099      0xabe D:/EmbeddecSystemsStuff/ticcs1230/simplelink_cc32xx_sdk_7_10_00_13/source\ti/drivers/lib/gcc/m4/drivers_cc32xx.a(I2CCC32XX.c.obj)
 .debug_loc     0x00001b57     0x14c4 D:/EmbeddecSystemsStuff/ticcs1230/simplelink_cc32xx_sdk_7_10_00_13/source\ti/drivers/lib/gcc/m4/drivers_cc32xx.a(PowerCC32XX.c.obj)
 .debug_loc     0x0000301b      0x1fe D:/EmbeddecSystemsStuff/ticcs1230/simplelink_cc32xx_sdk_7_10_00_13/source\ti/drivers/lib/gcc/m4/drivers_cc32xx.a(Timer.c.obj)
 .debug_loc     0x00003219      0xbbb D:/EmbeddecSystemsStuff/ticcs1230/simplelink_cc32xx_sdk_7_10_00_13/source\ti/drivers/lib/gcc/m4/drivers_cc32xx.a(TimerCC32XX.c.obj)
 .debug_loc     0x00003dd4     0x10d1 D:/EmbeddecSystemsStuff/ticcs1230/simplelink_cc32xx_sdk_7_10_00_13/source\ti/drivers/lib/gcc/m4/drivers_cc32xx.a(UART2.c.obj)
 .debug_loc     0x00004ea5     0x10c9 D:/EmbeddecSystemsStuff/ticcs1230/simplelink_cc32xx_sdk_7_10_00_13/source\ti/drivers/lib/gcc/m4/drivers_cc32xx.a(UART2CC32XX.c.obj)
 .debug_loc     0x00005f6e      0x428 D:/EmbeddecSystemsStuff/ticcs1230/simplelink_cc32xx_sdk_7_10_00_13/source\ti/drivers/lib/gcc/m4/drivers_cc32xx.a(List.c.obj)
 .debug_loc     0x00006396      0x6e0 D:/EmbeddecSystemsStuff/ticcs1230/simplelink_cc32xx_sdk_7_10_00_13/source\ti/drivers/lib/gcc/m4/drivers_cc32xx.a(RingBuf.c.obj)
 .debug_loc     0x00006a76      0x1ae D:/EmbeddecSystemsStuff/ticcs1230/simplelink_cc32xx_sdk_7_10_00_13/source\ti/drivers/lib/gcc/m4/drivers_cc32xx.a(UDMACC32XX.c.obj)
 .debug_loc     0x00006c24       0x32 D:/EmbeddecSystemsStuff/ticcs1230/simplelink_cc32xx_sdk_7_10_00_13/kernel/nortos\lib/gcc/m4/nortos_cc32xx.a(NoRTOS.c.obj)
 .debug_loc     0x00006c56      0xbae D:/EmbeddecSystemsStuff/ticcs1230/simplelink_cc32xx_sdk_7_10_00_13/kernel/nortos\lib/gcc/m4/nortos_cc32xx.a(SemaphoreP_nortos.c.obj)
 .debug_loc     0x00007804     0x1011 D:/EmbeddecSystemsStuff/ticcs1230/simplelink_cc32xx_sdk_7_10_00_13/kernel/nortos\lib/gcc/m4/nortos_cc32xx.a(ClockPSysTick_nortos.c.obj)
 .debug_loc     0x00008815      0x854 D:/EmbeddecSystemsStuff/ticcs1230/simplelink_cc32xx_sdk_7_10_00_13/kernel/nortos\lib/gcc/m4/nortos_cc32xx.a(HwiPCC32XX_nortos.c.obj)
 .debug_loc     0x00009069      0x400 D:/EmbeddecSystemsStuff/ticcs1230/simplelink_cc32xx_sdk_7_10_00_13/kernel/nortos\lib/gcc/m4/nortos_cc32xx.a(PowerCC32XX_nortos.c.obj)
 .debug_loc     0x00009469       0x91 D:/EmbeddecSystemsStuff/ticcs1230/simplelink_cc32xx_sdk_7_10_00_13/kernel/nortos\lib/gcc/m4/nortos_cc32xx.a(startup_cc32xx_gcc.c.obj)
 .debug_loc     0x000094fa      0xf6f D:/EmbeddecSystemsStuff/ticcs1230/simplelink_cc32xx_sdk_7_10_00_13/kernel/nortos\lib/gcc/m4/nortos_cc32xx.a(SwiP_nortos.c.obj)

.debug_aranges  0x00000000     0x1370
 .debug_aranges
                0x00000000       0x88 ./gpiointerrupt.o
 .debug_aranges
                0x00000088       0x30 ./syscfg/ti_drivers_config.o
 .debug_aranges
                0x000000b8       0x20 ./main_nortos.o
 .debug_aranges
                0x000000d8       0x38 D:/EmbeddecSystemsStuff/ticcs1230/simplelink_cc32xx_sdk_7_10_00_13/source\ti/drivers/lib/gcc/m4/drivers_cc32xx.a(GPIO.c.obj)
 .debug_aranges
                0x00000110       0x78 D:/EmbeddecSystemsStuff/ticcs1230/simplelink_cc32xx_sdk_7_10_00_13/source\ti/drivers/lib/gcc/m4/drivers_cc32xx.a(GPIOCC32XX.c.obj)
 .debug_aranges
                0x00000188       0x40 D:/EmbeddecSystemsStuff/ticcs1230/simplelink_cc32xx_sdk_7_10_00_13/source\ti/drivers/lib/gcc/m4/drivers_cc32xx.a(I2C.c.obj)
 .debug_aranges
                0x000001c8       0x98 D:/EmbeddecSystemsStuff/ticcs1230/simplelink_cc32xx_sdk_7_10_00_13/source\ti/drivers/lib/gcc/m4/drivers_cc32xx.a(I2CCC32XX.c.obj)
 .debug_aranges
                0x00000260       0xf0 D:/EmbeddecSystemsStuff/ticcs1230/simplelink_cc32xx_sdk_7_10_00_13/source\ti/drivers/lib/gcc/m4/drivers_cc32xx.a(PowerCC32XX.c.obj)
 .debug_aranges
                0x00000350       0x40 D:/EmbeddecSystemsStuff/ticcs1230/simplelink_cc32xx_sdk_7_10_00_13/source\ti/drivers/lib/gcc/m4/drivers_cc32xx.a(Timer.c.obj)
 .debug_aranges
                0x00000390       0x78 D:/EmbeddecSystemsStuff/ticcs1230/simplelink_cc32xx_sdk_7_10_00_13/source\ti/drivers/lib/gcc/m4/drivers_cc32xx.a(TimerCC32XX.c.obj)
 .debug_aranges
                0x00000408       0x80 D:/EmbeddecSystemsStuff/ticcs1230/simplelink_cc32xx_sdk_7_10_00_13/source\ti/drivers/lib/gcc/m4/drivers_cc32xx.a(UART2.c.obj)
 .debug_aranges
                0x00000488       0xc8 D:/EmbeddecSystemsStuff/ticcs1230/simplelink_cc32xx_sdk_7_10_00_13/source\ti/drivers/lib/gcc/m4/drivers_cc32xx.a(UART2CC32XX.c.obj)
 .debug_aranges
                0x00000550       0x48 D:/EmbeddecSystemsStuff/ticcs1230/simplelink_cc32xx_sdk_7_10_00_13/source\ti/drivers/lib/gcc/m4/drivers_cc32xx.a(List.c.obj)
 .debug_aranges
                0x00000598       0x88 D:/EmbeddecSystemsStuff/ticcs1230/simplelink_cc32xx_sdk_7_10_00_13/source\ti/drivers/lib/gcc/m4/drivers_cc32xx.a(RingBuf.c.obj)
 .debug_aranges
                0x00000620       0x38 D:/EmbeddecSystemsStuff/ticcs1230/simplelink_cc32xx_sdk_7_10_00_13/source\ti/drivers/lib/gcc/m4/drivers_cc32xx.a(UDMACC32XX.c.obj)
 .debug_aranges
                0x00000658       0x30 D:/EmbeddecSystemsStuff/ticcs1230/simplelink_cc32xx_sdk_7_10_00_13/kernel/nortos\lib/gcc/m4/nortos_cc32xx.a(NoRTOS.c.obj)
 .debug_aranges
                0x00000688       0x78 D:/EmbeddecSystemsStuff/ticcs1230/simplelink_cc32xx_sdk_7_10_00_13/kernel/nortos\lib/gcc/m4/nortos_cc32xx.a(SemaphoreP_nortos.c.obj)
 .debug_aranges
                0x00000700       0xd0 D:/EmbeddecSystemsStuff/ticcs1230/simplelink_cc32xx_sdk_7_10_00_13/kernel/nortos\lib/gcc/m4/nortos_cc32xx.a(ClockPSysTick_nortos.c.obj)
 .debug_aranges
                0x000007d0       0xb8 D:/EmbeddecSystemsStuff/ticcs1230/simplelink_cc32xx_sdk_7_10_00_13/kernel/nortos\lib/gcc/m4/nortos_cc32xx.a(HwiPCC32XX_nortos.c.obj)
 .debug_aranges
                0x00000888       0x28 D:/EmbeddecSystemsStuff/ticcs1230/simplelink_cc32xx_sdk_7_10_00_13/kernel/nortos\lib/gcc/m4/nortos_cc32xx.a(PowerCC32XX_nortos.c.obj)
 .debug_aranges
                0x000008b0       0x50 D:/EmbeddecSystemsStuff/ticcs1230/simplelink_cc32xx_sdk_7_10_00_13/kernel/nortos\lib/gcc/m4/nortos_cc32xx.a(startup_cc32xx_gcc.c.obj)
 .debug_aranges
                0x00000900       0xa8 D:/EmbeddecSystemsStuff/ticcs1230/simplelink_cc32xx_sdk_7_10_00_13/kernel/nortos\lib/gcc/m4/nortos_cc32xx.a(SwiP_nortos.c.obj)
 .debug_aranges
                0x000009a8       0x48 D:/EmbeddecSystemsStuff/ticcs1230/simplelink_cc32xx_sdk_7_10_00_13/source\ti/devices/cc32xx/driverlib/gcc/Release/driverlib.a(cpu.obj)
 .debug_aranges
                0x000009f0       0x90 D:/EmbeddecSystemsStuff/ticcs1230/simplelink_cc32xx_sdk_7_10_00_13/source\ti/devices/cc32xx/driverlib/gcc/Release/driverlib.a(gpio.obj)
 .debug_aranges
                0x00000a80      0x1c8 D:/EmbeddecSystemsStuff/ticcs1230/simplelink_cc32xx_sdk_7_10_00_13/source\ti/devices/cc32xx/driverlib/gcc/Release/driverlib.a(i2c.obj)
 .debug_aranges
                0x00000c48       0x98 D:/EmbeddecSystemsStuff/ticcs1230/simplelink_cc32xx_sdk_7_10_00_13/source\ti/devices/cc32xx/driverlib/gcc/Release/driverlib.a(interrupt.obj)
 .debug_aranges
                0x00000ce0       0xc0 D:/EmbeddecSystemsStuff/ticcs1230/simplelink_cc32xx_sdk_7_10_00_13/source\ti/devices/cc32xx/driverlib/gcc/Release/driverlib.a(pin.obj)
 .debug_aranges
                0x00000da0      0x1d8 D:/EmbeddecSystemsStuff/ticcs1230/simplelink_cc32xx_sdk_7_10_00_13/source\ti/devices/cc32xx/driverlib/gcc/Release/driverlib.a(prcm.obj)
 .debug_aranges
                0x00000f78       0x60 D:/EmbeddecSystemsStuff/ticcs1230/simplelink_cc32xx_sdk_7_10_00_13/source\ti/devices/cc32xx/driverlib/gcc/Release/driverlib.a(systick.obj)
 .debug_aranges
                0x00000fd8       0xd8 D:/EmbeddecSystemsStuff/ticcs1230/simplelink_cc32xx_sdk_7_10_00_13/source\ti/devices/cc32xx/driverlib/gcc/Release/driverlib.a(timer.obj)
 .debug_aranges
                0x000010b0      0x140 D:/EmbeddecSystemsStuff/ticcs1230/simplelink_cc32xx_sdk_7_10_00_13/source\ti/devices/cc32xx/driverlib/gcc/Release/driverlib.a(uart.obj)
 .debug_aranges
                0x000011f0       0xd8 D:/EmbeddecSystemsStuff/ticcs1230/simplelink_cc32xx_sdk_7_10_00_13/source\ti/devices/cc32xx/driverlib/gcc/Release/driverlib.a(udma.obj)
 .debug_aranges
                0x000012c8       0x20 D:/EmbeddecSystemsStuff/ticcs1230/simplelink_cc32xx_sdk_7_10_00_13/source\ti/devices/cc32xx/driverlib/gcc/Release/driverlib.a(utils.obj)
 .debug_aranges
                0x000012e8       0x88 D:/EmbeddecSystemsStuff/ticcs1230/simplelink_cc32xx_sdk_7_10_00_13/source\ti/devices/cc32xx/driverlib/gcc/Release/driverlib.a(flash.obj)

.debug_ranges   0x00000000     0x1da0
 .debug_ranges  0x00000000       0xf8 ./gpiointerrupt.o
 .debug_ranges  0x000000f8       0x20 ./syscfg/ti_drivers_config.o
 .debug_ranges  0x00000118       0x10 ./main_nortos.o
 .debug_ranges  0x00000128       0x28 D:/EmbeddecSystemsStuff/ticcs1230/simplelink_cc32xx_sdk_7_10_00_13/source\ti/drivers/lib/gcc/m4/drivers_cc32xx.a(GPIO.c.obj)
 .debug_ranges  0x00000150       0x68 D:/EmbeddecSystemsStuff/ticcs1230/simplelink_cc32xx_sdk_7_10_00_13/source\ti/drivers/lib/gcc/m4/drivers_cc32xx.a(GPIOCC32XX.c.obj)
 .debug_ranges  0x000001b8       0x30 D:/EmbeddecSystemsStuff/ticcs1230/simplelink_cc32xx_sdk_7_10_00_13/source\ti/drivers/lib/gcc/m4/drivers_cc32xx.a(I2C.c.obj)
 .debug_ranges  0x000001e8      0x138 D:/EmbeddecSystemsStuff/ticcs1230/simplelink_cc32xx_sdk_7_10_00_13/source\ti/drivers/lib/gcc/m4/drivers_cc32xx.a(I2CCC32XX.c.obj)
 .debug_ranges  0x00000320      0x220 D:/EmbeddecSystemsStuff/ticcs1230/simplelink_cc32xx_sdk_7_10_00_13/source\ti/drivers/lib/gcc/m4/drivers_cc32xx.a(PowerCC32XX.c.obj)
 .debug_ranges  0x00000540       0x30 D:/EmbeddecSystemsStuff/ticcs1230/simplelink_cc32xx_sdk_7_10_00_13/source\ti/drivers/lib/gcc/m4/drivers_cc32xx.a(Timer.c.obj)
 .debug_ranges  0x00000570      0x198 D:/EmbeddecSystemsStuff/ticcs1230/simplelink_cc32xx_sdk_7_10_00_13/source\ti/drivers/lib/gcc/m4/drivers_cc32xx.a(TimerCC32XX.c.obj)
 .debug_ranges  0x00000708       0x70 D:/EmbeddecSystemsStuff/ticcs1230/simplelink_cc32xx_sdk_7_10_00_13/source\ti/drivers/lib/gcc/m4/drivers_cc32xx.a(UART2.c.obj)
 .debug_ranges  0x00000778      0x228 D:/EmbeddecSystemsStuff/ticcs1230/simplelink_cc32xx_sdk_7_10_00_13/source\ti/drivers/lib/gcc/m4/drivers_cc32xx.a(UART2CC32XX.c.obj)
 .debug_ranges  0x000009a0       0x38 D:/EmbeddecSystemsStuff/ticcs1230/simplelink_cc32xx_sdk_7_10_00_13/source\ti/drivers/lib/gcc/m4/drivers_cc32xx.a(List.c.obj)
 .debug_ranges  0x000009d8       0xb0 D:/EmbeddecSystemsStuff/ticcs1230/simplelink_cc32xx_sdk_7_10_00_13/source\ti/drivers/lib/gcc/m4/drivers_cc32xx.a(RingBuf.c.obj)
 .debug_ranges  0x00000a88       0x28 D:/EmbeddecSystemsStuff/ticcs1230/simplelink_cc32xx_sdk_7_10_00_13/source\ti/drivers/lib/gcc/m4/drivers_cc32xx.a(UDMACC32XX.c.obj)
 .debug_ranges  0x00000ab0       0x20 D:/EmbeddecSystemsStuff/ticcs1230/simplelink_cc32xx_sdk_7_10_00_13/kernel/nortos\lib/gcc/m4/nortos_cc32xx.a(NoRTOS.c.obj)
 .debug_ranges  0x00000ad0      0x280 D:/EmbeddecSystemsStuff/ticcs1230/simplelink_cc32xx_sdk_7_10_00_13/kernel/nortos\lib/gcc/m4/nortos_cc32xx.a(SemaphoreP_nortos.c.obj)
 .debug_ranges  0x00000d50      0x460 D:/EmbeddecSystemsStuff/ticcs1230/simplelink_cc32xx_sdk_7_10_00_13/kernel/nortos\lib/gcc/m4/nortos_cc32xx.a(ClockPSysTick_nortos.c.obj)
 .debug_ranges  0x000011b0      0x100 D:/EmbeddecSystemsStuff/ticcs1230/simplelink_cc32xx_sdk_7_10_00_13/kernel/nortos\lib/gcc/m4/nortos_cc32xx.a(HwiPCC32XX_nortos.c.obj)
 .debug_ranges  0x000012b0       0x18 D:/EmbeddecSystemsStuff/ticcs1230/simplelink_cc32xx_sdk_7_10_00_13/kernel/nortos\lib/gcc/m4/nortos_cc32xx.a(PowerCC32XX_nortos.c.obj)
 .debug_ranges  0x000012c8       0x40 D:/EmbeddecSystemsStuff/ticcs1230/simplelink_cc32xx_sdk_7_10_00_13/kernel/nortos\lib/gcc/m4/nortos_cc32xx.a(startup_cc32xx_gcc.c.obj)
 .debug_ranges  0x00001308      0x178 D:/EmbeddecSystemsStuff/ticcs1230/simplelink_cc32xx_sdk_7_10_00_13/kernel/nortos\lib/gcc/m4/nortos_cc32xx.a(SwiP_nortos.c.obj)
 .debug_ranges  0x00001480       0x38 D:/EmbeddecSystemsStuff/ticcs1230/simplelink_cc32xx_sdk_7_10_00_13/source\ti/devices/cc32xx/driverlib/gcc/Release/driverlib.a(cpu.obj)
 .debug_ranges  0x000014b8       0x80 D:/EmbeddecSystemsStuff/ticcs1230/simplelink_cc32xx_sdk_7_10_00_13/source\ti/devices/cc32xx/driverlib/gcc/Release/driverlib.a(gpio.obj)
 .debug_ranges  0x00001538      0x1b8 D:/EmbeddecSystemsStuff/ticcs1230/simplelink_cc32xx_sdk_7_10_00_13/source\ti/devices/cc32xx/driverlib/gcc/Release/driverlib.a(i2c.obj)
 .debug_ranges  0x000016f0       0x88 D:/EmbeddecSystemsStuff/ticcs1230/simplelink_cc32xx_sdk_7_10_00_13/source\ti/devices/cc32xx/driverlib/gcc/Release/driverlib.a(interrupt.obj)
 .debug_ranges  0x00001778       0xb0 D:/EmbeddecSystemsStuff/ticcs1230/simplelink_cc32xx_sdk_7_10_00_13/source\ti/devices/cc32xx/driverlib/gcc/Release/driverlib.a(pin.obj)
 .debug_ranges  0x00001828      0x1e0 D:/EmbeddecSystemsStuff/ticcs1230/simplelink_cc32xx_sdk_7_10_00_13/source\ti/devices/cc32xx/driverlib/gcc/Release/driverlib.a(prcm.obj)
 .debug_ranges  0x00001a08       0x50 D:/EmbeddecSystemsStuff/ticcs1230/simplelink_cc32xx_sdk_7_10_00_13/source\ti/devices/cc32xx/driverlib/gcc/Release/driverlib.a(systick.obj)
 .debug_ranges  0x00001a58       0xc8 D:/EmbeddecSystemsStuff/ticcs1230/simplelink_cc32xx_sdk_7_10_00_13/source\ti/devices/cc32xx/driverlib/gcc/Release/driverlib.a(timer.obj)
 .debug_ranges  0x00001b20      0x130 D:/EmbeddecSystemsStuff/ticcs1230/simplelink_cc32xx_sdk_7_10_00_13/source\ti/devices/cc32xx/driverlib/gcc/Release/driverlib.a(uart.obj)
 .debug_ranges  0x00001c50       0xc8 D:/EmbeddecSystemsStuff/ticcs1230/simplelink_cc32xx_sdk_7_10_00_13/source\ti/devices/cc32xx/driverlib/gcc/Release/driverlib.a(udma.obj)
 .debug_ranges  0x00001d18       0x10 D:/EmbeddecSystemsStuff/ticcs1230/simplelink_cc32xx_sdk_7_10_00_13/source\ti/devices/cc32xx/driverlib/gcc/Release/driverlib.a(utils.obj)
 .debug_ranges  0x00001d28       0x78 D:/EmbeddecSystemsStuff/ticcs1230/simplelink_cc32xx_sdk_7_10_00_13/source\ti/devices/cc32xx/driverlib/gcc/Release/driverlib.a(flash.obj)

.debug_line     0x00000000    0x1245c
 .debug_line    0x00000000      0xb02 ./gpiointerrupt.o
 .debug_line    0x00000b02      0x6d4 ./syscfg/ti_drivers_config.o
 .debug_line    0x000011d6       0x77 ./main_nortos.o
 .debug_line    0x0000124d      0x44f D:/EmbeddecSystemsStuff/ticcs1230/simplelink_cc32xx_sdk_7_10_00_13/source\ti/drivers/lib/gcc/m4/drivers_cc32xx.a(GPIO.c.obj)
 .debug_line    0x0000169c      0xd44 D:/EmbeddecSystemsStuff/ticcs1230/simplelink_cc32xx_sdk_7_10_00_13/source\ti/drivers/lib/gcc/m4/drivers_cc32xx.a(GPIOCC32XX.c.obj)
 .debug_line    0x000023e0      0x7af D:/EmbeddecSystemsStuff/ticcs1230/simplelink_cc32xx_sdk_7_10_00_13/source\ti/drivers/lib/gcc/m4/drivers_cc32xx.a(I2C.c.obj)
 .debug_line    0x00002b8f      0xfb9 D:/EmbeddecSystemsStuff/ticcs1230/simplelink_cc32xx_sdk_7_10_00_13/source\ti/drivers/lib/gcc/m4/drivers_cc32xx.a(I2CCC32XX.c.obj)
 .debug_line    0x00003b48     0x1887 D:/EmbeddecSystemsStuff/ticcs1230/simplelink_cc32xx_sdk_7_10_00_13/source\ti/drivers/lib/gcc/m4/drivers_cc32xx.a(PowerCC32XX.c.obj)
 .debug_line    0x000053cf      0x798 D:/EmbeddecSystemsStuff/ticcs1230/simplelink_cc32xx_sdk_7_10_00_13/source\ti/drivers/lib/gcc/m4/drivers_cc32xx.a(Timer.c.obj)
 .debug_line    0x00005b67      0xdae D:/EmbeddecSystemsStuff/ticcs1230/simplelink_cc32xx_sdk_7_10_00_13/source\ti/drivers/lib/gcc/m4/drivers_cc32xx.a(TimerCC32XX.c.obj)
 .debug_line    0x00006915      0xf8c D:/EmbeddecSystemsStuff/ticcs1230/simplelink_cc32xx_sdk_7_10_00_13/source\ti/drivers/lib/gcc/m4/drivers_cc32xx.a(UART2.c.obj)
 .debug_line    0x000078a1     0x1623 D:/EmbeddecSystemsStuff/ticcs1230/simplelink_cc32xx_sdk_7_10_00_13/source\ti/drivers/lib/gcc/m4/drivers_cc32xx.a(UART2CC32XX.c.obj)
 .debug_line    0x00008ec4      0x5f8 D:/EmbeddecSystemsStuff/ticcs1230/simplelink_cc32xx_sdk_7_10_00_13/source\ti/drivers/lib/gcc/m4/drivers_cc32xx.a(List.c.obj)
 .debug_line    0x000094bc      0x826 D:/EmbeddecSystemsStuff/ticcs1230/simplelink_cc32xx_sdk_7_10_00_13/source\ti/drivers/lib/gcc/m4/drivers_cc32xx.a(RingBuf.c.obj)
 .debug_line    0x00009ce2      0x740 D:/EmbeddecSystemsStuff/ticcs1230/simplelink_cc32xx_sdk_7_10_00_13/source\ti/drivers/lib/gcc/m4/drivers_cc32xx.a(UDMACC32XX.c.obj)
 .debug_line    0x0000a422      0x36d D:/EmbeddecSystemsStuff/ticcs1230/simplelink_cc32xx_sdk_7_10_00_13/kernel/nortos\lib/gcc/m4/nortos_cc32xx.a(NoRTOS.c.obj)
 .debug_line    0x0000a78f      0xbfc D:/EmbeddecSystemsStuff/ticcs1230/simplelink_cc32xx_sdk_7_10_00_13/kernel/nortos\lib/gcc/m4/nortos_cc32xx.a(SemaphoreP_nortos.c.obj)
 .debug_line    0x0000b38b     0x11ae D:/EmbeddecSystemsStuff/ticcs1230/simplelink_cc32xx_sdk_7_10_00_13/kernel/nortos\lib/gcc/m4/nortos_cc32xx.a(ClockPSysTick_nortos.c.obj)
 .debug_line    0x0000c539      0x950 D:/EmbeddecSystemsStuff/ticcs1230/simplelink_cc32xx_sdk_7_10_00_13/kernel/nortos\lib/gcc/m4/nortos_cc32xx.a(HwiPCC32XX_nortos.c.obj)
 .debug_line    0x0000ce89      0x8bf D:/EmbeddecSystemsStuff/ticcs1230/simplelink_cc32xx_sdk_7_10_00_13/kernel/nortos\lib/gcc/m4/nortos_cc32xx.a(PowerCC32XX_nortos.c.obj)
 .debug_line    0x0000d748      0x57f D:/EmbeddecSystemsStuff/ticcs1230/simplelink_cc32xx_sdk_7_10_00_13/kernel/nortos\lib/gcc/m4/nortos_cc32xx.a(startup_cc32xx_gcc.c.obj)
 .debug_line    0x0000dcc7      0xd94 D:/EmbeddecSystemsStuff/ticcs1230/simplelink_cc32xx_sdk_7_10_00_13/kernel/nortos\lib/gcc/m4/nortos_cc32xx.a(SwiP_nortos.c.obj)
 .debug_line    0x0000ea5b      0x113 D:/EmbeddecSystemsStuff/ticcs1230/simplelink_cc32xx_sdk_7_10_00_13/source\ti/devices/cc32xx/driverlib/gcc/Release/driverlib.a(cpu.obj)
 .debug_line    0x0000eb6e      0x402 D:/EmbeddecSystemsStuff/ticcs1230/simplelink_cc32xx_sdk_7_10_00_13/source\ti/devices/cc32xx/driverlib/gcc/Release/driverlib.a(gpio.obj)
 .debug_line    0x0000ef70      0x8db D:/EmbeddecSystemsStuff/ticcs1230/simplelink_cc32xx_sdk_7_10_00_13/source\ti/devices/cc32xx/driverlib/gcc/Release/driverlib.a(i2c.obj)
 .debug_line    0x0000f84b      0x3fa D:/EmbeddecSystemsStuff/ticcs1230/simplelink_cc32xx_sdk_7_10_00_13/source\ti/devices/cc32xx/driverlib/gcc/Release/driverlib.a(interrupt.obj)
 .debug_line    0x0000fc45      0x3ed D:/EmbeddecSystemsStuff/ticcs1230/simplelink_cc32xx_sdk_7_10_00_13/source\ti/devices/cc32xx/driverlib/gcc/Release/driverlib.a(pin.obj)
 .debug_line    0x00010032      0xd2b D:/EmbeddecSystemsStuff/ticcs1230/simplelink_cc32xx_sdk_7_10_00_13/source\ti/devices/cc32xx/driverlib/gcc/Release/driverlib.a(prcm.obj)
 .debug_line    0x00010d5d      0x15d D:/EmbeddecSystemsStuff/ticcs1230/simplelink_cc32xx_sdk_7_10_00_13/source\ti/devices/cc32xx/driverlib/gcc/Release/driverlib.a(systick.obj)
 .debug_line    0x00010eba      0x581 D:/EmbeddecSystemsStuff/ticcs1230/simplelink_cc32xx_sdk_7_10_00_13/source\ti/devices/cc32xx/driverlib/gcc/Release/driverlib.a(timer.obj)
 .debug_line    0x0001143b      0x634 D:/EmbeddecSystemsStuff/ticcs1230/simplelink_cc32xx_sdk_7_10_00_13/source\ti/devices/cc32xx/driverlib/gcc/Release/driverlib.a(uart.obj)
 .debug_line    0x00011a6f      0x57b D:/EmbeddecSystemsStuff/ticcs1230/simplelink_cc32xx_sdk_7_10_00_13/source\ti/devices/cc32xx/driverlib/gcc/Release/driverlib.a(udma.obj)
 .debug_line    0x00011fea       0x8a D:/EmbeddecSystemsStuff/ticcs1230/simplelink_cc32xx_sdk_7_10_00_13/source\ti/devices/cc32xx/driverlib/gcc/Release/driverlib.a(utils.obj)
 .debug_line    0x00012074      0x3e8 D:/EmbeddecSystemsStuff/ticcs1230/simplelink_cc32xx_sdk_7_10_00_13/source\ti/devices/cc32xx/driverlib/gcc/Release/driverlib.a(flash.obj)

.debug_str      0x00000000     0x67d6
 .debug_str     0x00000000      0xde7 ./gpiointerrupt.o
                                0xede (size before relaxing)
 .debug_str     0x00000de7      0xbfd ./syscfg/ti_drivers_config.o
                               0x140d (size before relaxing)
 .debug_str     0x000019e4       0x11 ./main_nortos.o
                                0x1b7 (size before relaxing)
 .debug_str     0x000019f5      0x2a6 D:/EmbeddecSystemsStuff/ticcs1230/simplelink_cc32xx_sdk_7_10_00_13/source\ti/drivers/lib/gcc/m4/drivers_cc32xx.a(GPIO.c.obj)
                                0x76f (size before relaxing)
 .debug_str     0x00001c9b      0x3e7 D:/EmbeddecSystemsStuff/ticcs1230/simplelink_cc32xx_sdk_7_10_00_13/source\ti/drivers/lib/gcc/m4/drivers_cc32xx.a(GPIOCC32XX.c.obj)
                                0xaa4 (size before relaxing)
 .debug_str     0x00002082      0x1ec D:/EmbeddecSystemsStuff/ticcs1230/simplelink_cc32xx_sdk_7_10_00_13/source\ti/drivers/lib/gcc/m4/drivers_cc32xx.a(I2C.c.obj)
                                0xafc (size before relaxing)
 .debug_str     0x0000226e      0x4af D:/EmbeddecSystemsStuff/ticcs1230/simplelink_cc32xx_sdk_7_10_00_13/source\ti/drivers/lib/gcc/m4/drivers_cc32xx.a(I2CCC32XX.c.obj)
                                0xfb2 (size before relaxing)
 .debug_str     0x0000271d      0x8a0 D:/EmbeddecSystemsStuff/ticcs1230/simplelink_cc32xx_sdk_7_10_00_13/source\ti/drivers/lib/gcc/m4/drivers_cc32xx.a(PowerCC32XX.c.obj)
                               0x126c (size before relaxing)
 .debug_str     0x00002fbd      0x170 D:/EmbeddecSystemsStuff/ticcs1230/simplelink_cc32xx_sdk_7_10_00_13/source\ti/drivers/lib/gcc/m4/drivers_cc32xx.a(Timer.c.obj)
                                0xaf9 (size before relaxing)
 .debug_str     0x0000312d      0x22f D:/EmbeddecSystemsStuff/ticcs1230/simplelink_cc32xx_sdk_7_10_00_13/source\ti/drivers/lib/gcc/m4/drivers_cc32xx.a(TimerCC32XX.c.obj)
                                0xa4d (size before relaxing)
 .debug_str     0x0000335c      0x3ef D:/EmbeddecSystemsStuff/ticcs1230/simplelink_cc32xx_sdk_7_10_00_13/source\ti/drivers/lib/gcc/m4/drivers_cc32xx.a(UART2.c.obj)
                               0x103e (size before relaxing)
 .debug_str     0x0000374b      0x49e D:/EmbeddecSystemsStuff/ticcs1230/simplelink_cc32xx_sdk_7_10_00_13/source\ti/drivers/lib/gcc/m4/drivers_cc32xx.a(UART2CC32XX.c.obj)
                               0x18ec (size before relaxing)
 .debug_str     0x00003be9       0xf5 D:/EmbeddecSystemsStuff/ticcs1230/simplelink_cc32xx_sdk_7_10_00_13/source\ti/drivers/lib/gcc/m4/drivers_cc32xx.a(List.c.obj)
                                0x76c (size before relaxing)
 .debug_str     0x00003cde      0x133 D:/EmbeddecSystemsStuff/ticcs1230/simplelink_cc32xx_sdk_7_10_00_13/source\ti/drivers/lib/gcc/m4/drivers_cc32xx.a(RingBuf.c.obj)
                                0x468 (size before relaxing)
 .debug_str     0x00003e11       0xf3 D:/EmbeddecSystemsStuff/ticcs1230/simplelink_cc32xx_sdk_7_10_00_13/source\ti/drivers/lib/gcc/m4/drivers_cc32xx.a(UDMACC32XX.c.obj)
                                0x5b9 (size before relaxing)
 .debug_str     0x00003f04      0x1dc D:/EmbeddecSystemsStuff/ticcs1230/simplelink_cc32xx_sdk_7_10_00_13/kernel/nortos\lib/gcc/m4/nortos_cc32xx.a(NoRTOS.c.obj)
                                0x3e7 (size before relaxing)
 .debug_str     0x000040e0      0x21d D:/EmbeddecSystemsStuff/ticcs1230/simplelink_cc32xx_sdk_7_10_00_13/kernel/nortos\lib/gcc/m4/nortos_cc32xx.a(SemaphoreP_nortos.c.obj)
                                0xa16 (size before relaxing)
 .debug_str     0x000042fd      0x32b D:/EmbeddecSystemsStuff/ticcs1230/simplelink_cc32xx_sdk_7_10_00_13/kernel/nortos\lib/gcc/m4/nortos_cc32xx.a(ClockPSysTick_nortos.c.obj)
                                0xb73 (size before relaxing)
 .debug_str     0x00004628      0x377 D:/EmbeddecSystemsStuff/ticcs1230/simplelink_cc32xx_sdk_7_10_00_13/kernel/nortos\lib/gcc/m4/nortos_cc32xx.a(HwiPCC32XX_nortos.c.obj)
                                0xb49 (size before relaxing)
 .debug_str     0x0000499f      0x200 D:/EmbeddecSystemsStuff/ticcs1230/simplelink_cc32xx_sdk_7_10_00_13/kernel/nortos\lib/gcc/m4/nortos_cc32xx.a(PowerCC32XX_nortos.c.obj)
                                0x7c1 (size before relaxing)
 .debug_str     0x00004b9f      0x1ca D:/EmbeddecSystemsStuff/ticcs1230/simplelink_cc32xx_sdk_7_10_00_13/kernel/nortos\lib/gcc/m4/nortos_cc32xx.a(startup_cc32xx_gcc.c.obj)
                                0x7fe (size before relaxing)
 .debug_str     0x00004d69      0x37a D:/EmbeddecSystemsStuff/ticcs1230/simplelink_cc32xx_sdk_7_10_00_13/kernel/nortos\lib/gcc/m4/nortos_cc32xx.a(SwiP_nortos.c.obj)
                                0xac2 (size before relaxing)
 .debug_str     0x000050e3      0x19f D:/EmbeddecSystemsStuff/ticcs1230/simplelink_cc32xx_sdk_7_10_00_13/source\ti/devices/cc32xx/driverlib/gcc/Release/driverlib.a(cpu.obj)
                                0x1bc (size before relaxing)
 .debug_str     0x00005282      0x140 D:/EmbeddecSystemsStuff/ticcs1230/simplelink_cc32xx_sdk_7_10_00_13/source\ti/devices/cc32xx/driverlib/gcc/Release/driverlib.a(gpio.obj)
                                0x2ec (size before relaxing)
 .debug_str     0x000053c2      0x3be D:/EmbeddecSystemsStuff/ticcs1230/simplelink_cc32xx_sdk_7_10_00_13/source\ti/devices/cc32xx/driverlib/gcc/Release/driverlib.a(i2c.obj)
                                0x704 (size before relaxing)
 .debug_str     0x00005780      0x174 D:/EmbeddecSystemsStuff/ticcs1230/simplelink_cc32xx_sdk_7_10_00_13/source\ti/devices/cc32xx/driverlib/gcc/Release/driverlib.a(interrupt.obj)
                                0x34d (size before relaxing)
 .debug_str     0x000058f4      0x13c D:/EmbeddecSystemsStuff/ticcs1230/simplelink_cc32xx_sdk_7_10_00_13/source\ti/devices/cc32xx/driverlib/gcc/Release/driverlib.a(pin.obj)
                                0x32a (size before relaxing)
 .debug_str     0x00005a30      0x4f0 D:/EmbeddecSystemsStuff/ticcs1230/simplelink_cc32xx_sdk_7_10_00_13/source\ti/devices/cc32xx/driverlib/gcc/Release/driverlib.a(prcm.obj)
                                0x893 (size before relaxing)
 .debug_str     0x00005f20       0xa5 D:/EmbeddecSystemsStuff/ticcs1230/simplelink_cc32xx_sdk_7_10_00_13/source\ti/devices/cc32xx/driverlib/gcc/Release/driverlib.a(systick.obj)
                                0x229 (size before relaxing)
 .debug_str     0x00005fc5      0x18d D:/EmbeddecSystemsStuff/ticcs1230/simplelink_cc32xx_sdk_7_10_00_13/source\ti/devices/cc32xx/driverlib/gcc/Release/driverlib.a(timer.obj)
                                0x362 (size before relaxing)
 .debug_str     0x00006152      0x22a D:/EmbeddecSystemsStuff/ticcs1230/simplelink_cc32xx_sdk_7_10_00_13/source\ti/devices/cc32xx/driverlib/gcc/Release/driverlib.a(uart.obj)
                                0x4da (size before relaxing)
 .debug_str     0x0000637c      0x231 D:/EmbeddecSystemsStuff/ticcs1230/simplelink_cc32xx_sdk_7_10_00_13/source\ti/devices/cc32xx/driverlib/gcc/Release/driverlib.a(udma.obj)
                                0x490 (size before relaxing)
 .debug_str     0x000065ad       0x65 D:/EmbeddecSystemsStuff/ticcs1230/simplelink_cc32xx_sdk_7_10_00_13/source\ti/devices/cc32xx/driverlib/gcc/Release/driverlib.a(utils.obj)
                                0x17e (size before relaxing)
 .debug_str     0x00006612      0x1c4 D:/EmbeddecSystemsStuff/ticcs1230/simplelink_cc32xx_sdk_7_10_00_13/source\ti/devices/cc32xx/driverlib/gcc/Release/driverlib.a(flash.obj)
                                0x330 (size before relaxing)

.comment        0x00000000       0x79
 .comment       0x00000000       0x79 ./gpiointerrupt.o
                                 0x7a (size before relaxing)
 .comment       0x00000079       0x7a ./syscfg/ti_drivers_config.o
 .comment       0x00000079       0x7a ./main_nortos.o
 .comment       0x00000079       0x7a D:/EmbeddecSystemsStuff/ticcs1230/simplelink_cc32xx_sdk_7_10_00_13/source\ti/drivers/lib/gcc/m4/drivers_cc32xx.a(GPIO.c.obj)
 .comment       0x00000079       0x7a D:/EmbeddecSystemsStuff/ticcs1230/simplelink_cc32xx_sdk_7_10_00_13/source\ti/drivers/lib/gcc/m4/drivers_cc32xx.a(GPIOCC32XX.c.obj)
 .comment       0x00000079       0x7a D:/EmbeddecSystemsStuff/ticcs1230/simplelink_cc32xx_sdk_7_10_00_13/source\ti/drivers/lib/gcc/m4/drivers_cc32xx.a(I2C.c.obj)
 .comment       0x00000079       0x7a D:/EmbeddecSystemsStuff/ticcs1230/simplelink_cc32xx_sdk_7_10_00_13/source\ti/drivers/lib/gcc/m4/drivers_cc32xx.a(I2CCC32XX.c.obj)
 .comment       0x00000079       0x7a D:/EmbeddecSystemsStuff/ticcs1230/simplelink_cc32xx_sdk_7_10_00_13/source\ti/drivers/lib/gcc/m4/drivers_cc32xx.a(PowerCC32XX.c.obj)
 .comment       0x00000079       0x7a D:/EmbeddecSystemsStuff/ticcs1230/simplelink_cc32xx_sdk_7_10_00_13/source\ti/drivers/lib/gcc/m4/drivers_cc32xx.a(Timer.c.obj)
 .comment       0x00000079       0x7a D:/EmbeddecSystemsStuff/ticcs1230/simplelink_cc32xx_sdk_7_10_00_13/source\ti/drivers/lib/gcc/m4/drivers_cc32xx.a(TimerCC32XX.c.obj)
 .comment       0x00000079       0x7a D:/EmbeddecSystemsStuff/ticcs1230/simplelink_cc32xx_sdk_7_10_00_13/source\ti/drivers/lib/gcc/m4/drivers_cc32xx.a(UART2.c.obj)
 .comment       0x00000079       0x7a D:/EmbeddecSystemsStuff/ticcs1230/simplelink_cc32xx_sdk_7_10_00_13/source\ti/drivers/lib/gcc/m4/drivers_cc32xx.a(UART2CC32XX.c.obj)
 .comment       0x00000079       0x7a D:/EmbeddecSystemsStuff/ticcs1230/simplelink_cc32xx_sdk_7_10_00_13/source\ti/drivers/lib/gcc/m4/drivers_cc32xx.a(List.c.obj)
 .comment       0x00000079       0x7a D:/EmbeddecSystemsStuff/ticcs1230/simplelink_cc32xx_sdk_7_10_00_13/source\ti/drivers/lib/gcc/m4/drivers_cc32xx.a(RingBuf.c.obj)
 .comment       0x00000079       0x7a D:/EmbeddecSystemsStuff/ticcs1230/simplelink_cc32xx_sdk_7_10_00_13/source\ti/drivers/lib/gcc/m4/drivers_cc32xx.a(UDMACC32XX.c.obj)
 .comment       0x00000079       0x7a D:/EmbeddecSystemsStuff/ticcs1230/simplelink_cc32xx_sdk_7_10_00_13/kernel/nortos\lib/gcc/m4/nortos_cc32xx.a(NoRTOS.c.obj)
 .comment       0x00000079       0x7a D:/EmbeddecSystemsStuff/ticcs1230/simplelink_cc32xx_sdk_7_10_00_13/kernel/nortos\lib/gcc/m4/nortos_cc32xx.a(SemaphoreP_nortos.c.obj)
 .comment       0x00000079       0x7a D:/EmbeddecSystemsStuff/ticcs1230/simplelink_cc32xx_sdk_7_10_00_13/kernel/nortos\lib/gcc/m4/nortos_cc32xx.a(ClockPSysTick_nortos.c.obj)
 .comment       0x00000079       0x7a D:/EmbeddecSystemsStuff/ticcs1230/simplelink_cc32xx_sdk_7_10_00_13/kernel/nortos\lib/gcc/m4/nortos_cc32xx.a(HwiPCC32XX_nortos.c.obj)
 .comment       0x00000079       0x7a D:/EmbeddecSystemsStuff/ticcs1230/simplelink_cc32xx_sdk_7_10_00_13/kernel/nortos\lib/gcc/m4/nortos_cc32xx.a(PowerCC32XX_nortos.c.obj)
 .comment       0x00000079       0x7a D:/EmbeddecSystemsStuff/ticcs1230/simplelink_cc32xx_sdk_7_10_00_13/kernel/nortos\lib/gcc/m4/nortos_cc32xx.a(startup_cc32xx_gcc.c.obj)
 .comment       0x00000079       0x7a D:/EmbeddecSystemsStuff/ticcs1230/simplelink_cc32xx_sdk_7_10_00_13/kernel/nortos\lib/gcc/m4/nortos_cc32xx.a(SwiP_nortos.c.obj)
 .comment       0x00000079       0x7a D:/EmbeddecSystemsStuff/ticcs1230/simplelink_cc32xx_sdk_7_10_00_13/source\ti/devices/cc32xx/driverlib/gcc/Release/driverlib.a(cpu.obj)
 .comment       0x00000079       0x7a D:/EmbeddecSystemsStuff/ticcs1230/simplelink_cc32xx_sdk_7_10_00_13/source\ti/devices/cc32xx/driverlib/gcc/Release/driverlib.a(gpio.obj)
 .comment       0x00000079       0x7a D:/EmbeddecSystemsStuff/ticcs1230/simplelink_cc32xx_sdk_7_10_00_13/source\ti/devices/cc32xx/driverlib/gcc/Release/driverlib.a(i2c.obj)
 .comment       0x00000079       0x7a D:/EmbeddecSystemsStuff/ticcs1230/simplelink_cc32xx_sdk_7_10_00_13/source\ti/devices/cc32xx/driverlib/gcc/Release/driverlib.a(interrupt.obj)
 .comment       0x00000079       0x7a D:/EmbeddecSystemsStuff/ticcs1230/simplelink_cc32xx_sdk_7_10_00_13/source\ti/devices/cc32xx/driverlib/gcc/Release/driverlib.a(pin.obj)
 .comment       0x00000079       0x7a D:/EmbeddecSystemsStuff/ticcs1230/simplelink_cc32xx_sdk_7_10_00_13/source\ti/devices/cc32xx/driverlib/gcc/Release/driverlib.a(prcm.obj)
 .comment       0x00000079       0x7a D:/EmbeddecSystemsStuff/ticcs1230/simplelink_cc32xx_sdk_7_10_00_13/source\ti/devices/cc32xx/driverlib/gcc/Release/driverlib.a(systick.obj)
 .comment       0x00000079       0x7a D:/EmbeddecSystemsStuff/ticcs1230/simplelink_cc32xx_sdk_7_10_00_13/source\ti/devices/cc32xx/driverlib/gcc/Release/driverlib.a(timer.obj)
 .comment       0x00000079       0x7a D:/EmbeddecSystemsStuff/ticcs1230/simplelink_cc32xx_sdk_7_10_00_13/source\ti/devices/cc32xx/driverlib/gcc/Release/driverlib.a(uart.obj)
 .comment       0x00000079       0x7a D:/EmbeddecSystemsStuff/ticcs1230/simplelink_cc32xx_sdk_7_10_00_13/source\ti/devices/cc32xx/driverlib/gcc/Release/driverlib.a(udma.obj)
 .comment       0x00000079       0x7a D:/EmbeddecSystemsStuff/ticcs1230/simplelink_cc32xx_sdk_7_10_00_13/source\ti/devices/cc32xx/driverlib/gcc/Release/driverlib.a(utils.obj)
 .comment       0x00000079       0x7a D:/EmbeddecSystemsStuff/ticcs1230/simplelink_cc32xx_sdk_7_10_00_13/source\ti/devices/cc32xx/driverlib/gcc/Release/driverlib.a(flash.obj)

.ARM.attributes
                0x00000000       0x2c
 .ARM.attributes
                0x00000000       0x2e ./gpiointerrupt.o
 .ARM.attributes
                0x0000002e       0x2e ./syscfg/ti_drivers_config.o
 .ARM.attributes
                0x0000005c       0x2e ./main_nortos.o
 .ARM.attributes
                0x0000008a       0x2e D:/EmbeddecSystemsStuff/ticcs1230/simplelink_cc32xx_sdk_7_10_00_13/source\ti/drivers/lib/gcc/m4/drivers_cc32xx.a(GPIO.c.obj)
 .ARM.attributes
                0x000000b8       0x2e D:/EmbeddecSystemsStuff/ticcs1230/simplelink_cc32xx_sdk_7_10_00_13/source\ti/drivers/lib/gcc/m4/drivers_cc32xx.a(GPIOCC32XX.c.obj)
 .ARM.attributes
                0x000000e6       0x2e D:/EmbeddecSystemsStuff/ticcs1230/simplelink_cc32xx_sdk_7_10_00_13/source\ti/drivers/lib/gcc/m4/drivers_cc32xx.a(I2C.c.obj)
 .ARM.attributes
                0x00000114       0x2e D:/EmbeddecSystemsStuff/ticcs1230/simplelink_cc32xx_sdk_7_10_00_13/source\ti/drivers/lib/gcc/m4/drivers_cc32xx.a(I2CCC32XX.c.obj)
 .ARM.attributes
                0x00000142       0x2e D:/EmbeddecSystemsStuff/ticcs1230/simplelink_cc32xx_sdk_7_10_00_13/source\ti/drivers/lib/gcc/m4/drivers_cc32xx.a(PowerCC32XX.c.obj)
 .ARM.attributes
                0x00000170       0x1c D:/EmbeddecSystemsStuff/ticcs1230/simplelink_cc32xx_sdk_7_10_00_13/source\ti/drivers/lib/gcc/m4/drivers_cc32xx.a(PowerCC32XX_gcc.asm.obj)
 .ARM.attributes
                0x0000018c       0x2e D:/EmbeddecSystemsStuff/ticcs1230/simplelink_cc32xx_sdk_7_10_00_13/source\ti/drivers/lib/gcc/m4/drivers_cc32xx.a(Timer.c.obj)
 .ARM.attributes
                0x000001ba       0x2e D:/EmbeddecSystemsStuff/ticcs1230/simplelink_cc32xx_sdk_7_10_00_13/source\ti/drivers/lib/gcc/m4/drivers_cc32xx.a(TimerCC32XX.c.obj)
 .ARM.attributes
                0x000001e8       0x2e D:/EmbeddecSystemsStuff/ticcs1230/simplelink_cc32xx_sdk_7_10_00_13/source\ti/drivers/lib/gcc/m4/drivers_cc32xx.a(UART2.c.obj)
 .ARM.attributes
                0x00000216       0x2e D:/EmbeddecSystemsStuff/ticcs1230/simplelink_cc32xx_sdk_7_10_00_13/source\ti/drivers/lib/gcc/m4/drivers_cc32xx.a(UART2CC32XX.c.obj)
 .ARM.attributes
                0x00000244       0x2e D:/EmbeddecSystemsStuff/ticcs1230/simplelink_cc32xx_sdk_7_10_00_13/source\ti/drivers/lib/gcc/m4/drivers_cc32xx.a(List.c.obj)
 .ARM.attributes
                0x00000272       0x2e D:/EmbeddecSystemsStuff/ticcs1230/simplelink_cc32xx_sdk_7_10_00_13/source\ti/drivers/lib/gcc/m4/drivers_cc32xx.a(RingBuf.c.obj)
 .ARM.attributes
                0x000002a0       0x2e D:/EmbeddecSystemsStuff/ticcs1230/simplelink_cc32xx_sdk_7_10_00_13/source\ti/drivers/lib/gcc/m4/drivers_cc32xx.a(UDMACC32XX.c.obj)
 .ARM.attributes
                0x000002ce       0x2e D:/EmbeddecSystemsStuff/ticcs1230/simplelink_cc32xx_sdk_7_10_00_13/kernel/nortos\lib/gcc/m4/nortos_cc32xx.a(NoRTOS.c.obj)
 .ARM.attributes
                0x000002fc       0x2e D:/EmbeddecSystemsStuff/ticcs1230/simplelink_cc32xx_sdk_7_10_00_13/kernel/nortos\lib/gcc/m4/nortos_cc32xx.a(SemaphoreP_nortos.c.obj)
 .ARM.attributes
                0x0000032a       0x2e D:/EmbeddecSystemsStuff/ticcs1230/simplelink_cc32xx_sdk_7_10_00_13/kernel/nortos\lib/gcc/m4/nortos_cc32xx.a(ClockPSysTick_nortos.c.obj)
 .ARM.attributes
                0x00000358       0x2e D:/EmbeddecSystemsStuff/ticcs1230/simplelink_cc32xx_sdk_7_10_00_13/kernel/nortos\lib/gcc/m4/nortos_cc32xx.a(HwiPCC32XX_nortos.c.obj)
 .ARM.attributes
                0x00000386       0x2e D:/EmbeddecSystemsStuff/ticcs1230/simplelink_cc32xx_sdk_7_10_00_13/kernel/nortos\lib/gcc/m4/nortos_cc32xx.a(PowerCC32XX_nortos.c.obj)
 .ARM.attributes
                0x000003b4       0x2e D:/EmbeddecSystemsStuff/ticcs1230/simplelink_cc32xx_sdk_7_10_00_13/kernel/nortos\lib/gcc/m4/nortos_cc32xx.a(startup_cc32xx_gcc.c.obj)
 .ARM.attributes
                0x000003e2       0x2e D:/EmbeddecSystemsStuff/ticcs1230/simplelink_cc32xx_sdk_7_10_00_13/kernel/nortos\lib/gcc/m4/nortos_cc32xx.a(SwiP_nortos.c.obj)
 .ARM.attributes
                0x00000410       0x2e D:/EmbeddecSystemsStuff/ticcs1230/simplelink_cc32xx_sdk_7_10_00_13/source\ti/devices/cc32xx/driverlib/gcc/Release/driverlib.a(cpu.obj)
 .ARM.attributes
                0x0000043e       0x2e D:/EmbeddecSystemsStuff/ticcs1230/simplelink_cc32xx_sdk_7_10_00_13/source\ti/devices/cc32xx/driverlib/gcc/Release/driverlib.a(gpio.obj)
 .ARM.attributes
                0x0000046c       0x2e D:/EmbeddecSystemsStuff/ticcs1230/simplelink_cc32xx_sdk_7_10_00_13/source\ti/devices/cc32xx/driverlib/gcc/Release/driverlib.a(i2c.obj)
 .ARM.attributes
                0x0000049a       0x2e D:/EmbeddecSystemsStuff/ticcs1230/simplelink_cc32xx_sdk_7_10_00_13/source\ti/devices/cc32xx/driverlib/gcc/Release/driverlib.a(interrupt.obj)
 .ARM.attributes
                0x000004c8       0x2e D:/EmbeddecSystemsStuff/ticcs1230/simplelink_cc32xx_sdk_7_10_00_13/source\ti/devices/cc32xx/driverlib/gcc/Release/driverlib.a(pin.obj)
 .ARM.attributes
                0x000004f6       0x2e D:/EmbeddecSystemsStuff/ticcs1230/simplelink_cc32xx_sdk_7_10_00_13/source\ti/devices/cc32xx/driverlib/gcc/Release/driverlib.a(prcm.obj)
 .ARM.attributes
                0x00000524       0x2e D:/EmbeddecSystemsStuff/ticcs1230/simplelink_cc32xx_sdk_7_10_00_13/source\ti/devices/cc32xx/driverlib/gcc/Release/driverlib.a(systick.obj)
 .ARM.attributes
                0x00000552       0x2e D:/EmbeddecSystemsStuff/ticcs1230/simplelink_cc32xx_sdk_7_10_00_13/source\ti/devices/cc32xx/driverlib/gcc/Release/driverlib.a(timer.obj)
 .ARM.attributes
                0x00000580       0x2e D:/EmbeddecSystemsStuff/ticcs1230/simplelink_cc32xx_sdk_7_10_00_13/source\ti/devices/cc32xx/driverlib/gcc/Release/driverlib.a(uart.obj)
 .ARM.attributes
                0x000005ae       0x2e D:/EmbeddecSystemsStuff/ticcs1230/simplelink_cc32xx_sdk_7_10_00_13/source\ti/devices/cc32xx/driverlib/gcc/Release/driverlib.a(udma.obj)
 .ARM.attributes
                0x000005dc       0x2e D:/EmbeddecSystemsStuff/ticcs1230/simplelink_cc32xx_sdk_7_10_00_13/source\ti/devices/cc32xx/driverlib/gcc/Release/driverlib.a(utils.obj)
 .ARM.attributes
                0x0000060a       0x2e D:/EmbeddecSystemsStuff/ticcs1230/simplelink_cc32xx_sdk_7_10_00_13/source\ti/devices/cc32xx/driverlib/gcc/Release/driverlib.a(flash.obj)
 .ARM.attributes
                0x00000638       0x1e d:/embeddecsystemsstuff/ticcs1230/ccs/tools/compiler/gcc-arm-none-eabi-9-2019-q4-major/bin/../lib/gcc/arm-none-eabi/9.2.1/thumb/v7e-m/nofp\libgcc.a(_arm_muldf3.o)
 .ARM.attributes
                0x00000656       0x1e d:/embeddecsystemsstuff/ticcs1230/ccs/tools/compiler/gcc-arm-none-eabi-9-2019-q4-major/bin/../lib/gcc/arm-none-eabi/9.2.1/thumb/v7e-m/nofp\libgcc.a(_arm_addsubdf3.o)
 .ARM.attributes
                0x00000674       0x1e d:/embeddecsystemsstuff/ticcs1230/ccs/tools/compiler/gcc-arm-none-eabi-9-2019-q4-major/bin/../lib/gcc/arm-none-eabi/9.2.1/thumb/v7e-m/nofp\libgcc.a(_arm_fixdfsi.o)
 .ARM.attributes
                0x00000692       0x1e d:/embeddecsystemsstuff/ticcs1230/ccs/tools/compiler/gcc-arm-none-eabi-9-2019-q4-major/bin/../lib/gcc/arm-none-eabi/9.2.1/thumb/v7e-m/nofp\libgcc.a(_arm_fixunsdfsi.o)
 .ARM.attributes
                0x000006b0       0x1e d:/embeddecsystemsstuff/ticcs1230/ccs/tools/compiler/gcc-arm-none-eabi-9-2019-q4-major/bin/../lib/gcc/arm-none-eabi/9.2.1/thumb/v7e-m/nofp\libgcc.a(_aeabi_uldivmod.o)
 .ARM.attributes
                0x000006ce       0x2e d:/embeddecsystemsstuff/ticcs1230/ccs/tools/compiler/gcc-arm-none-eabi-9-2019-q4-major/bin/../lib/gcc/arm-none-eabi/9.2.1/thumb/v7e-m/nofp\libgcc.a(_udivmoddi4.o)
 .ARM.attributes
                0x000006fc       0x1e d:/embeddecsystemsstuff/ticcs1230/ccs/tools/compiler/gcc-arm-none-eabi-9-2019-q4-major/bin/../lib/gcc/arm-none-eabi/9.2.1/thumb/v7e-m/nofp\libgcc.a(_dvmd_tls.o)
 .ARM.attributes
                0x0000071a       0x2e D:/EmbeddecSystemsStuff/ticcs1230/ccs/tools/compiler/gcc-arm-none-eabi-9-2019-q4-major/arm-none-eabi/lib/thumb/v7e-m/nofp\libc_nano.a(lib_a-malloc.o)
 .ARM.attributes
                0x00000748       0x2e D:/EmbeddecSystemsStuff/ticcs1230/ccs/tools/compiler/gcc-arm-none-eabi-9-2019-q4-major/arm-none-eabi/lib/thumb/v7e-m/nofp\libc_nano.a(lib_a-memcpy-stub.o)
 .ARM.attributes
                0x00000776       0x2e D:/EmbeddecSystemsStuff/ticcs1230/ccs/tools/compiler/gcc-arm-none-eabi-9-2019-q4-major/arm-none-eabi/lib/thumb/v7e-m/nofp\libc_nano.a(lib_a-memset.o)
 .ARM.attributes
                0x000007a4       0x2e D:/EmbeddecSystemsStuff/ticcs1230/ccs/tools/compiler/gcc-arm-none-eabi-9-2019-q4-major/arm-none-eabi/lib/thumb/v7e-m/nofp\libc_nano.a(lib_a-nano-freer.o)
 .ARM.attributes
                0x000007d2       0x2e D:/EmbeddecSystemsStuff/ticcs1230/ccs/tools/compiler/gcc-arm-none-eabi-9-2019-q4-major/arm-none-eabi/lib/thumb/v7e-m/nofp\libc_nano.a(lib_a-nano-mallocr.o)
 .ARM.attributes
                0x00000800       0x2e D:/EmbeddecSystemsStuff/ticcs1230/ccs/tools/compiler/gcc-arm-none-eabi-9-2019-q4-major/arm-none-eabi/lib/thumb/v7e-m/nofp\libc_nano.a(lib_a-sbrkr.o)
 .ARM.attributes
                0x0000082e       0x2e D:/EmbeddecSystemsStuff/ticcs1230/ccs/tools/compiler/gcc-arm-none-eabi-9-2019-q4-major/arm-none-eabi/lib/thumb/v7e-m/nofp\libc_nano.a(lib_a-snprintf.o)
 .ARM.attributes
                0x0000085c       0x2e D:/EmbeddecSystemsStuff/ticcs1230/ccs/tools/compiler/gcc-arm-none-eabi-9-2019-q4-major/arm-none-eabi/lib/thumb/v7e-m/nofp\libc_nano.a(lib_a-impure.o)
 .ARM.attributes
                0x0000088a       0x2e D:/EmbeddecSystemsStuff/ticcs1230/ccs/tools/compiler/gcc-arm-none-eabi-9-2019-q4-major/arm-none-eabi/lib/thumb/v7e-m/nofp\libc_nano.a(lib_a-mlock.o)
 .ARM.attributes
                0x000008b8       0x2e D:/EmbeddecSystemsStuff/ticcs1230/ccs/tools/compiler/gcc-arm-none-eabi-9-2019-q4-major/arm-none-eabi/lib/thumb/v7e-m/nofp\libc_nano.a(lib_a-nano-svfprintf.o)
 .ARM.attributes
                0x000008e6       0x2e D:/EmbeddecSystemsStuff/ticcs1230/ccs/tools/compiler/gcc-arm-none-eabi-9-2019-q4-major/arm-none-eabi/lib/thumb/v7e-m/nofp\libc_nano.a(lib_a-nano-vfprintf_i.o)
 .ARM.attributes
                0x00000914       0x2e D:/EmbeddecSystemsStuff/ticcs1230/ccs/tools/compiler/gcc-arm-none-eabi-9-2019-q4-major/arm-none-eabi/lib/thumb/v7e-m/nofp\libc_nano.a(lib_a-reent.o)
 .ARM.attributes
                0x00000942       0x2e D:/EmbeddecSystemsStuff/ticcs1230/ccs/tools/compiler/gcc-arm-none-eabi-9-2019-q4-major/arm-none-eabi/lib/thumb/v7e-m/nofp\libc_nano.a(lib_a-lock.o)
 .ARM.attributes
                0x00000970       0x1c D:/EmbeddecSystemsStuff/ticcs1230/ccs/tools/compiler/gcc-arm-none-eabi-9-2019-q4-major/arm-none-eabi/lib/thumb/v7e-m/nofp\libc_nano.a(lib_a-memchr.o)
 .ARM.attributes
                0x0000098c       0x2e D:/EmbeddecSystemsStuff/ticcs1230/ccs/tools/compiler/gcc-arm-none-eabi-9-2019-q4-major/arm-none-eabi/lib/thumb/v7e-m/nofp\libc_nano.a(lib_a-memmove.o)
 .ARM.attributes
                0x000009ba       0x2e D:/EmbeddecSystemsStuff/ticcs1230/ccs/tools/compiler/gcc-arm-none-eabi-9-2019-q4-major/arm-none-eabi/lib/thumb/v7e-m/nofp\libc_nano.a(lib_a-nano-reallocr.o)
 .ARM.attributes
                0x000009e8       0x2e D:/EmbeddecSystemsStuff/ticcs1230/ccs/tools/compiler/gcc-arm-none-eabi-9-2019-q4-major/arm-none-eabi/lib/thumb/v7e-m/nofp\libc_nano.a(lib_a-nano-msizer.o)
 .ARM.attributes
                0x00000a16       0x2e D:/EmbeddecSystemsStuff/ticcs1230/ccs/tools/compiler/gcc-arm-none-eabi-9-2019-q4-major/arm-none-eabi/lib/thumb/v7e-m/nofp\libnosys.a(sbrk.o)

.debug_frame    0x00000000     0x4cc8
 .debug_frame   0x00000000      0x190 ./gpiointerrupt.o
 .debug_frame   0x00000190       0x50 ./syscfg/ti_drivers_config.o
 .debug_frame   0x000001e0       0x28 ./main_nortos.o
 .debug_frame   0x00000208       0x50 D:/EmbeddecSystemsStuff/ticcs1230/simplelink_cc32xx_sdk_7_10_00_13/source\ti/drivers/lib/gcc/m4/drivers_cc32xx.a(GPIO.c.obj)
 .debug_frame   0x00000258      0x1d0 D:/EmbeddecSystemsStuff/ticcs1230/simplelink_cc32xx_sdk_7_10_00_13/source\ti/drivers/lib/gcc/m4/drivers_cc32xx.a(GPIOCC32XX.c.obj)
 .debug_frame   0x00000428       0x90 D:/EmbeddecSystemsStuff/ticcs1230/simplelink_cc32xx_sdk_7_10_00_13/source\ti/drivers/lib/gcc/m4/drivers_cc32xx.a(I2C.c.obj)
 .debug_frame   0x000004b8      0x1f8 D:/EmbeddecSystemsStuff/ticcs1230/simplelink_cc32xx_sdk_7_10_00_13/source\ti/drivers/lib/gcc/m4/drivers_cc32xx.a(I2CCC32XX.c.obj)
 .debug_frame   0x000006b0      0x2fc D:/EmbeddecSystemsStuff/ticcs1230/simplelink_cc32xx_sdk_7_10_00_13/source\ti/drivers/lib/gcc/m4/drivers_cc32xx.a(PowerCC32XX.c.obj)
 .debug_frame   0x000009ac       0xa4 D:/EmbeddecSystemsStuff/ticcs1230/simplelink_cc32xx_sdk_7_10_00_13/source\ti/drivers/lib/gcc/m4/drivers_cc32xx.a(Timer.c.obj)
 .debug_frame   0x00000a50      0x1b8 D:/EmbeddecSystemsStuff/ticcs1230/simplelink_cc32xx_sdk_7_10_00_13/source\ti/drivers/lib/gcc/m4/drivers_cc32xx.a(TimerCC32XX.c.obj)
 .debug_frame   0x00000c08      0x240 D:/EmbeddecSystemsStuff/ticcs1230/simplelink_cc32xx_sdk_7_10_00_13/source\ti/drivers/lib/gcc/m4/drivers_cc32xx.a(UART2.c.obj)
 .debug_frame   0x00000e48      0x2a8 D:/EmbeddecSystemsStuff/ticcs1230/simplelink_cc32xx_sdk_7_10_00_13/source\ti/drivers/lib/gcc/m4/drivers_cc32xx.a(UART2CC32XX.c.obj)
 .debug_frame   0x000010f0       0xf8 D:/EmbeddecSystemsStuff/ticcs1230/simplelink_cc32xx_sdk_7_10_00_13/source\ti/drivers/lib/gcc/m4/drivers_cc32xx.a(List.c.obj)
 .debug_frame   0x000011e8      0x180 D:/EmbeddecSystemsStuff/ticcs1230/simplelink_cc32xx_sdk_7_10_00_13/source\ti/drivers/lib/gcc/m4/drivers_cc32xx.a(RingBuf.c.obj)
 .debug_frame   0x00001368       0xa8 D:/EmbeddecSystemsStuff/ticcs1230/simplelink_cc32xx_sdk_7_10_00_13/source\ti/drivers/lib/gcc/m4/drivers_cc32xx.a(UDMACC32XX.c.obj)
 .debug_frame   0x00001410       0x4c D:/EmbeddecSystemsStuff/ticcs1230/simplelink_cc32xx_sdk_7_10_00_13/kernel/nortos\lib/gcc/m4/nortos_cc32xx.a(NoRTOS.c.obj)
 .debug_frame   0x0000145c      0x150 D:/EmbeddecSystemsStuff/ticcs1230/simplelink_cc32xx_sdk_7_10_00_13/kernel/nortos\lib/gcc/m4/nortos_cc32xx.a(SemaphoreP_nortos.c.obj)
 .debug_frame   0x000015ac      0x294 D:/EmbeddecSystemsStuff/ticcs1230/simplelink_cc32xx_sdk_7_10_00_13/kernel/nortos\lib/gcc/m4/nortos_cc32xx.a(ClockPSysTick_nortos.c.obj)
 .debug_frame   0x00001840      0x1c8 D:/EmbeddecSystemsStuff/ticcs1230/simplelink_cc32xx_sdk_7_10_00_13/kernel/nortos\lib/gcc/m4/nortos_cc32xx.a(HwiPCC32XX_nortos.c.obj)
 .debug_frame   0x00001a08       0x58 D:/EmbeddecSystemsStuff/ticcs1230/simplelink_cc32xx_sdk_7_10_00_13/kernel/nortos\lib/gcc/m4/nortos_cc32xx.a(PowerCC32XX_nortos.c.obj)
 .debug_frame   0x00001a60       0x9c D:/EmbeddecSystemsStuff/ticcs1230/simplelink_cc32xx_sdk_7_10_00_13/kernel/nortos\lib/gcc/m4/nortos_cc32xx.a(startup_cc32xx_gcc.c.obj)
 .debug_frame   0x00001afc      0x274 D:/EmbeddecSystemsStuff/ticcs1230/simplelink_cc32xx_sdk_7_10_00_13/kernel/nortos\lib/gcc/m4/nortos_cc32xx.a(SwiP_nortos.c.obj)
 .debug_frame   0x00001d70       0x70 D:/EmbeddecSystemsStuff/ticcs1230/simplelink_cc32xx_sdk_7_10_00_13/source\ti/devices/cc32xx/driverlib/gcc/Release/driverlib.a(cpu.obj)
 .debug_frame   0x00001de0      0x260 D:/EmbeddecSystemsStuff/ticcs1230/simplelink_cc32xx_sdk_7_10_00_13/source\ti/devices/cc32xx/driverlib/gcc/Release/driverlib.a(gpio.obj)
 .debug_frame   0x00002040      0x870 D:/EmbeddecSystemsStuff/ticcs1230/simplelink_cc32xx_sdk_7_10_00_13/source\ti/devices/cc32xx/driverlib/gcc/Release/driverlib.a(i2c.obj)
 .debug_frame   0x000028b0      0x258 D:/EmbeddecSystemsStuff/ticcs1230/simplelink_cc32xx_sdk_7_10_00_13/source\ti/devices/cc32xx/driverlib/gcc/Release/driverlib.a(interrupt.obj)
 .debug_frame   0x00002b08      0x32c D:/EmbeddecSystemsStuff/ticcs1230/simplelink_cc32xx_sdk_7_10_00_13/source\ti/devices/cc32xx/driverlib/gcc/Release/driverlib.a(pin.obj)
 .debug_frame   0x00002e34      0x828 D:/EmbeddecSystemsStuff/ticcs1230/simplelink_cc32xx_sdk_7_10_00_13/source\ti/devices/cc32xx/driverlib/gcc/Release/driverlib.a(prcm.obj)
 .debug_frame   0x0000365c      0x138 D:/EmbeddecSystemsStuff/ticcs1230/simplelink_cc32xx_sdk_7_10_00_13/source\ti/devices/cc32xx/driverlib/gcc/Release/driverlib.a(systick.obj)
 .debug_frame   0x00003794      0x3c8 D:/EmbeddecSystemsStuff/ticcs1230/simplelink_cc32xx_sdk_7_10_00_13/source\ti/devices/cc32xx/driverlib/gcc/Release/driverlib.a(timer.obj)
 .debug_frame   0x00003b5c      0x5cc D:/EmbeddecSystemsStuff/ticcs1230/simplelink_cc32xx_sdk_7_10_00_13/source\ti/devices/cc32xx/driverlib/gcc/Release/driverlib.a(uart.obj)
 .debug_frame   0x00004128      0x390 D:/EmbeddecSystemsStuff/ticcs1230/simplelink_cc32xx_sdk_7_10_00_13/source\ti/devices/cc32xx/driverlib/gcc/Release/driverlib.a(udma.obj)
 .debug_frame   0x000044b8       0x20 D:/EmbeddecSystemsStuff/ticcs1230/simplelink_cc32xx_sdk_7_10_00_13/source\ti/devices/cc32xx/driverlib/gcc/Release/driverlib.a(utils.obj)
 .debug_frame   0x000044d8      0x214 D:/EmbeddecSystemsStuff/ticcs1230/simplelink_cc32xx_sdk_7_10_00_13/source\ti/devices/cc32xx/driverlib/gcc/Release/driverlib.a(flash.obj)
 .debug_frame   0x000046ec       0x30 d:/embeddecsystemsstuff/ticcs1230/ccs/tools/compiler/gcc-arm-none-eabi-9-2019-q4-major/bin/../lib/gcc/arm-none-eabi/9.2.1/thumb/v7e-m/nofp\libgcc.a(_arm_muldf3.o)
 .debug_frame   0x0000471c       0xac d:/embeddecsystemsstuff/ticcs1230/ccs/tools/compiler/gcc-arm-none-eabi-9-2019-q4-major/bin/../lib/gcc/arm-none-eabi/9.2.1/thumb/v7e-m/nofp\libgcc.a(_arm_addsubdf3.o)
 .debug_frame   0x000047c8       0x24 d:/embeddecsystemsstuff/ticcs1230/ccs/tools/compiler/gcc-arm-none-eabi-9-2019-q4-major/bin/../lib/gcc/arm-none-eabi/9.2.1/thumb/v7e-m/nofp\libgcc.a(_arm_fixdfsi.o)
 .debug_frame   0x000047ec       0x24 d:/embeddecsystemsstuff/ticcs1230/ccs/tools/compiler/gcc-arm-none-eabi-9-2019-q4-major/bin/../lib/gcc/arm-none-eabi/9.2.1/thumb/v7e-m/nofp\libgcc.a(_arm_fixunsdfsi.o)
 .debug_frame   0x00004810       0x2c d:/embeddecsystemsstuff/ticcs1230/ccs/tools/compiler/gcc-arm-none-eabi-9-2019-q4-major/bin/../lib/gcc/arm-none-eabi/9.2.1/thumb/v7e-m/nofp\libgcc.a(_aeabi_uldivmod.o)
 .debug_frame   0x0000483c       0x34 d:/embeddecsystemsstuff/ticcs1230/ccs/tools/compiler/gcc-arm-none-eabi-9-2019-q4-major/bin/../lib/gcc/arm-none-eabi/9.2.1/thumb/v7e-m/nofp\libgcc.a(_udivmoddi4.o)
 .debug_frame   0x00004870       0x30 D:/EmbeddecSystemsStuff/ticcs1230/ccs/tools/compiler/gcc-arm-none-eabi-9-2019-q4-major/arm-none-eabi/lib/thumb/v7e-m/nofp\libc_nano.a(lib_a-malloc.o)
 .debug_frame   0x000048a0       0x28 D:/EmbeddecSystemsStuff/ticcs1230/ccs/tools/compiler/gcc-arm-none-eabi-9-2019-q4-major/arm-none-eabi/lib/thumb/v7e-m/nofp\libc_nano.a(lib_a-memcpy-stub.o)
 .debug_frame   0x000048c8       0x20 D:/EmbeddecSystemsStuff/ticcs1230/ccs/tools/compiler/gcc-arm-none-eabi-9-2019-q4-major/arm-none-eabi/lib/thumb/v7e-m/nofp\libc_nano.a(lib_a-memset.o)
 .debug_frame   0x000048e8       0x38 D:/EmbeddecSystemsStuff/ticcs1230/ccs/tools/compiler/gcc-arm-none-eabi-9-2019-q4-major/arm-none-eabi/lib/thumb/v7e-m/nofp\libc_nano.a(lib_a-nano-freer.o)
 .debug_frame   0x00004920       0x30 D:/EmbeddecSystemsStuff/ticcs1230/ccs/tools/compiler/gcc-arm-none-eabi-9-2019-q4-major/arm-none-eabi/lib/thumb/v7e-m/nofp\libc_nano.a(lib_a-nano-mallocr.o)
 .debug_frame   0x00004950       0x2c D:/EmbeddecSystemsStuff/ticcs1230/ccs/tools/compiler/gcc-arm-none-eabi-9-2019-q4-major/arm-none-eabi/lib/thumb/v7e-m/nofp\libc_nano.a(lib_a-sbrkr.o)
 .debug_frame   0x0000497c       0x7c D:/EmbeddecSystemsStuff/ticcs1230/ccs/tools/compiler/gcc-arm-none-eabi-9-2019-q4-major/arm-none-eabi/lib/thumb/v7e-m/nofp\libc_nano.a(lib_a-snprintf.o)
 .debug_frame   0x000049f8       0x30 D:/EmbeddecSystemsStuff/ticcs1230/ccs/tools/compiler/gcc-arm-none-eabi-9-2019-q4-major/arm-none-eabi/lib/thumb/v7e-m/nofp\libc_nano.a(lib_a-mlock.o)
 .debug_frame   0x00004a28       0x90 D:/EmbeddecSystemsStuff/ticcs1230/ccs/tools/compiler/gcc-arm-none-eabi-9-2019-q4-major/arm-none-eabi/lib/thumb/v7e-m/nofp\libc_nano.a(lib_a-nano-svfprintf.o)
 .debug_frame   0x00004ab8       0x60 D:/EmbeddecSystemsStuff/ticcs1230/ccs/tools/compiler/gcc-arm-none-eabi-9-2019-q4-major/arm-none-eabi/lib/thumb/v7e-m/nofp\libc_nano.a(lib_a-nano-vfprintf_i.o)
 .debug_frame   0x00004b18       0x5c D:/EmbeddecSystemsStuff/ticcs1230/ccs/tools/compiler/gcc-arm-none-eabi-9-2019-q4-major/arm-none-eabi/lib/thumb/v7e-m/nofp\libc_nano.a(lib_a-reent.o)
 .debug_frame   0x00004b74       0xb0 D:/EmbeddecSystemsStuff/ticcs1230/ccs/tools/compiler/gcc-arm-none-eabi-9-2019-q4-major/arm-none-eabi/lib/thumb/v7e-m/nofp\libc_nano.a(lib_a-lock.o)
 .debug_frame   0x00004c24       0x28 D:/EmbeddecSystemsStuff/ticcs1230/ccs/tools/compiler/gcc-arm-none-eabi-9-2019-q4-major/arm-none-eabi/lib/thumb/v7e-m/nofp\libc_nano.a(lib_a-memmove.o)
 .debug_frame   0x00004c4c       0x3c D:/EmbeddecSystemsStuff/ticcs1230/ccs/tools/compiler/gcc-arm-none-eabi-9-2019-q4-major/arm-none-eabi/lib/thumb/v7e-m/nofp\libc_nano.a(lib_a-nano-reallocr.o)
 .debug_frame   0x00004c88       0x20 D:/EmbeddecSystemsStuff/ticcs1230/ccs/tools/compiler/gcc-arm-none-eabi-9-2019-q4-major/arm-none-eabi/lib/thumb/v7e-m/nofp\libc_nano.a(lib_a-nano-msizer.o)
 .debug_frame   0x00004ca8       0x20 D:/EmbeddecSystemsStuff/ticcs1230/ccs/tools/compiler/gcc-arm-none-eabi-9-2019-q4-major/arm-none-eabi/lib/thumb/v7e-m/nofp\libnosys.a(sbrk.o)
